(lp0
(iBook
Book
p1
(dp2
S'NumOfRead'
p3
I0
sS'author'
p4
S''
p5
sS'title'
p6
csip
_unpickle_type
p7
(S'PyQt4.QtCore'
p8
S'QString'
p9
(VBook1
p10
tp11
tp12
Rp13
sS'cover_page'
p14
S'create zip files in linux.png'
p15
sS'summary'
p16
g7
(g8
S'QString'
p17
(Vnew book1
p18
tp19
tp20
Rp21
sS'book_file'
p22
S'Book1.txt'
p23
sS'requestPoint'
p24
g7
(g8
S'QString'
p25
(V100
p26
tp27
tp28
Rp29
sS'contribute_by'
p30
g7
(g8
S'QString'
p31
(Vdin
p32
tp33
tp34
Rp35
sS'type'
p36
g5
sS'superuser_set_point'
p37
I100
sba(iBook
Book
p38
(dp39
g3
I0
sg4
g5
sg6
g7
(g8
S'QString'
p40
(VQuinneys
p41
tp42
tp43
Rp44
sg14
S'Screen Shot 2015-11-30 at 9.37.14 PM.png'
p45
sg16
g7
(g8
S'QString'
p46
(Vnew book 2
p47
tp48
tp49
Rp50
sg22
S'Quinneys.txt'
p51
sg24
g7
(g8
S'QString'
p52
(V100
p53
tp54
tp55
Rp56
sg30
g7
(g8
S'QString'
p57
(Vdin
p58
tp59
tp60
Rp61
sg36
g5
sg37
I100
sba(iBook
Book
p62
(dp63
g3
I0
sg4
g5
sg6
g7
(g8
S'QString'
p64
(VUpdated SRS report
p65
tp66
tp67
Rp68
sg14
S'Screen Shot 2015-09-30 at 8.11.25 PM.png'
p69
sg16
g7
(g8
S'QString'
p70
(Vnew book
p71
tp72
tp73
Rp74
sg22
S'Updated SRS report.pdf'
p75
sg24
g7
(g8
S'QString'
p76
(V100
p77
tp78
tp79
Rp80
sg30
g7
(g8
S'QString'
p81
(Vdin
p82
tp83
tp84
Rp85
sg36
g5
sg37
I100
sba.