(lp0
(iBook
Book
p1
(dp2
S'NumOfRead'
p3
I0
sS'author'
p4
S''
p5
sS'title'
p6
csip
_unpickle_type
p7
(S'PyQt4.QtCore'
p8
S'QString'
p9
(Vafaf
p10
tp11
tp12
Rp13
sS'cover_page'
p14
S'char5.png'
p15
sS'summary'
p16
g7
(g8
S'QString'
p17
(Vafafa
p18
tp19
tp20
Rp21
sS'book_file'
p22
S'Fall 2015 Final Exam Schedule.pdf'
p23
sS'requestPoint'
p24
g7
(g8
S'QString'
p25
(V111
p26
tp27
tp28
Rp29
sS'contribute_by'
p30
g7
(g8
S'QString'
p31
(Vwwwwww
p32
tp33
tp34
Rp35
sS'type'
p36
g5
sS'superuser_set_point'
p37
I111
sba(iBook
Book
p38
(dp39
g3
I0
sg4
g5
sg6
g7
(g8
S'QString'
p40
(Vafwfwf
p41
tp42
tp43
Rp44
sg14
S'char4.png'
p45
sg16
g7
(g8
S'QString'
p46
(Vwfafea
p47
tp48
tp49
Rp50
sg22
S'Fall 2015 Final Exam Schedule.pdf'
p51
sg24
g7
(g8
S'QString'
p52
(V22
p53
tp54
tp55
Rp56
sg30
g7
(g8
S'QString'
p57
(Vwwwwww
p58
tp59
tp60
Rp61
sg36
g5
sg37
I22
sba(iBook
Book
p62
(dp63
g3
I0
sg4
g5
sg6
g7
(g8
S'QString'
p64
(VThe Little Schemer
p65
tp66
tp67
Rp68
sg14
S'create zip files in linux.png'
p69
sg16
g7
(g8
S'QString'
p70
(Vbook on Scheme
p71
tp72
tp73
Rp74
sg22
S'The Little Schemer.pdf'
p75
sg24
g7
(g8
S'QString'
p76
(V150
p77
tp78
tp79
Rp80
sg30
g7
(g8
S'QString'
p81
(Vdin
p82
tp83
tp84
Rp85
sg36
g5
sg37
I150
sba(iBook
Book
p86
(dp87
g3
I0
sg4
g5
sg6
g7
(g8
S'QString'
p88
(Vblurbs
p89
tp90
tp91
Rp92
sg14
S'create zip files in linux.png'
p93
sg16
g7
(g8
S'QString'
p94
(Vblurbs
p95
tp96
tp97
Rp98
sg22
S'blurbs.docx'
p99
sg24
g7
(g8
S'QString'
p100
(V100
p101
tp102
tp103
Rp104
sg30
g7
(g8
S'QString'
p105
(Vdin
p106
tp107
tp108
Rp109
sg36
g5
sg37
I100
sba.