(lp0
(iBook
Book
p1
(dp2
S'NumOfRead'
p3
I22
sS'comment_type'
p4
(lp5
sS'author'
p6
S'Ralph Henry Barbour'
p7
sS'number_of_complaint'
p8
I0
sS'title'
p9
S'Four in Camp'
p10
sS'last_time_read'
p11
F1450119635.788
sS'complaint'
p12
(lp13
sS'cover_page'
p14
S'QUINNEYS.jpg'
p15
sS'summary'
p16
S'A STORY OF SUMMER ADVENTURES IN THE NEW HAMPSHIRE WOODS'
p17
sS'book_file'
p18
S'Four in Camp.txt'
p19
sS'rate'
p20
(lp21
sS'requestPoint'
p22
I20
sS'comments'
p23
(lp24
sS'contribute_by'
p25
S'kaiying'
p26
sS'type'
p27
S'Adventures'
p28
sS'superuser_set_point'
p29
I0
sS'complain'
p30
(lp31
sba(iBook
Book
p32
(dp33
g3
I8
sg4
(lp34
sg6
S'Franois Mauriac'
p35
sg8
I0
sg9
S'La chair et le sang'
p36
sg11
F1450116098.867
sg12
(lp37
sg14
S'QUINNEYS.jpg'
p38
sg16
S'Since the introduction of the tungsten lamp some five years ago, the manufacturers have attempted continually to produce smaller and smaller units in the standard voltages.'
p39
sg18
S'La chair et le sang.txt'
p40
sg20
(lp41
sg22
I5
sg23
(lp42
sg25
S'kaiying'
p43
sg27
S'Education'
p44
sg29
I0
sg30
(lp45
sba(iBook
Book
p46
(dp47
g3
I22
sg4
(lp48
sg6
S'Clair Elmore Anderson'
p49
sg8
I0
sg9
S'The Fifteen Watt Tungsten Lamp'
p50
sg11
F1450116098.867
sg12
(lp51
sg14
g38
sg16
g39
sg18
S'The Fifteen Watt Tungsten Lamp.txt'
p52
sg20
(lp53
sg22
I25
sg23
(lp54
sg25
g43
sg27
g44
sg29
I0
sg30
(lp55
sba(iBook
Book
p56
(dp57
g3
I55
sg4
(lp58
sg6
S'L. Frank Baum'
p59
sg8
I0
sg9
S'The Wonderful Wizard of Oz'
p60
sg11
F1450116098.867
sg12
(lp61
sg14
S'The Wonderful Wizard of Oz.jpg'
p62
sg16
S'Folklore, legends, myths and fairy tales have followed childhood through the ages, for every healthy youngster has a wholesome andinstinctive love for stories fantastic, marvelous and manifestly unreal.'
p63
sg18
S'The Wonderful Wizard of Oz.txt'
p64
sg20
(lp65
sg22
I35
sg23
(lp66
sg25
g43
sg27
S'Adventures'
p67
sg29
I0
sg30
(lp68
sba(iBook
Book
p69
(dp70
g3
I3
sg4
(lp71
sg6
S'Francis Chevassu'
p72
sg8
I0
sg9
S'Visages'
p73
sg11
F1450116098.867
sg12
(lp74
sg14
g38
sg16
S'IL est certain que la gloire a un ge. Jean-Jacques nous apparat  quarante ans, Voltaire  soixante, Musset  vingt-cinq, Hugo cinquante,'
p75
sg18
S'Visages.txt'
p76
sg20
(lp77
sg22
I10
sg23
(lp78
sg25
g43
sg27
g44
sg29
I0
sg30
(lp79
sba(iBook
Book
p80
(dp81
g3
I61
sg4
(lp82
sg6
S'Horace Annesley Vachell'
p83
sg8
I0
sg9
S'Quinneys'
p84
sg11
F1450119104.5
sg12
(lp85
sg14
S'QUINNEYS.jpg'
p86
sg16
S"With his back to the man, Quinney smiled.  He could remember the day, not so long ago, when Pinker, the grocer, called him 'My lad.' "
p87
sg18
S'Quinneys.txt'
p88
sg20
(lp89
sg22
I30
sg23
(lp90
sg25
S'kaiying'
p91
sg27
S'history'
p92
sg29
I0
sg30
(lp93
sba.