(lp0
(iBook
Book
p1
(dp2
S'NumOfRead'
p3
I18
sS'comment_type'
p4
(lp5
sS'author'
p6
S'Ralph Henry Barbour'
p7
sS'number_of_complaint'
p8
I0
sS'title'
p9
S'Four in Camp'
p10
sS'last_time_read'
p11
F1450108634.670112
sS'complaint'
p12
(lp13
sS'cover_page'
p14
S'QUINNEYS.jpg'
p15
sS'summary'
p16
S'A STORY OF SUMMER ADVENTURES IN THE NEW HAMPSHIRE WOODS'
p17
sS'book_file'
p18
S'Four in Camp.txt'
p19
sS'rate'
p20
(lp21
sS'requestPoint'
p22
I20
sS'comments'
p23
(lp24
sS'contribute_by'
p25
S'kaiying'
p26
sS'type'
p27
S'Adventures'
p28
sS'superuser_set_point'
p29
I0
sS'complain'
p30
(lp31
sba(iBook
Book
p32
(dp33
g3
I8
sg4
(lp34
sg6
S'Franois Mauriac'
p35
sg8
I0
sg9
S'La chair et le sang'
p36
sg11
F1450108634.670117
sg12
(lp37
sg14
g15
sg16
S'Since the introduction of the tungsten lamp some five years ago, the manufacturers have attempted continually to produce smaller and smaller units in the standard voltages.'
p38
sg18
S'La chair et le sang.txt'
p39
sg20
(lp40
sg22
I5
sg23
(lp41
sg25
g26
sg27
S'Education'
p42
sg29
I0
sg30
(lp43
sba(iBook
Book
p44
(dp45
g3
I22
sg4
(lp46
sg6
S'Clair Elmore Anderson'
p47
sg8
I0
sg9
S'The Fifteen Watt Tungsten Lamp'
p48
sg11
F1450108634.670121
sg12
(lp49
sg14
g15
sg16
g38
sg18
S'The Fifteen Watt Tungsten Lamp.txt'
p50
sg20
(lp51
sg22
I25
sg23
(lp52
sg25
g26
sg27
g42
sg29
I0
sg30
(lp53
sba(iBook
Book
p54
(dp55
g3
I55
sg4
(lp56
sg6
S'L. Frank Baum'
p57
sg8
I0
sg9
S'The Wonderful Wizard of Oz'
p58
sg11
F1450108634.670124
sg12
(lp59
sg14
S'The Wonderful Wizard of Oz.jpg'
p60
sg16
S'Folklore, legends, myths and fairy tales have followed childhood through the ages, for every healthy youngster has a wholesome andinstinctive love for stories fantastic, marvelous and manifestly unreal.'
p61
sg18
S'The Wonderful Wizard of Oz.txt'
p62
sg20
(lp63
sg22
I35
sg23
(lp64
sg25
g26
sg27
g28
sg29
I0
sg30
(lp65
sba(iBook
Book
p66
(dp67
g3
I4
sg4
(lp68
S'Doubdtful'
p69
asg6
S'Francis Chevassu'
p70
sg8
I0
sg9
S'Visages'
p71
sg11
F1450108647.690824
sg12
(lp72
sg14
S'QUINNEYS.jpg'
p73
sg16
S'IL est certain que la gloire a un ge. Jean-Jacques nous apparat  quarante ans, Voltaire  soixante, Musset  vingt-cinq, Hugo cinquante,'
p74
sg18
S'Visages.txt'
p75
sg20
(lp76
S'5'
p77
asg22
I10
sg23
(lp78
S'great loved it'
p79
asg25
S'kaiying'
p80
sg27
S'Education'
p81
sg29
I0
sg30
(lp82
sba(iBook
Book
p83
(dp84
g3
I55
sg4
(lp85
sg6
S'Horace Annesley Vachell'
p86
sg8
I0
sg9
S'Quinneys'
p87
sg11
F1450108634.670131
sg12
(lp88
sg14
g15
sg16
S"With his back to the man, Quinney smiled.  He could remember the day, not so long ago, when Pinker, the grocer, called him 'My lad.' "
p89
sg18
S'Quinneys.txt'
p90
sg20
(lp91
sg22
I30
sg23
(lp92
sg25
g26
sg27
S'history'
p93
sg29
I0
sg30
(lp94
sba.