(lp0
(iBook
Book
p1
(dp2
S'complaint'
p3
(lp4
sS'author'
p5
S'Ralph Henry Barbour'
p6
sS'number_of_complaint'
p7
I0
sS'cover_page'
p8
S'QUINNEYS.jpg'
p9
sS'last_time_read'
p10
F1450143936.103874
sS'NumOfRead'
p11
I19
sS'comments'
p12
(lp13
sS'summary'
p14
S'A STORY OF SUMMER ADVENTURES IN THE NEW HAMPSHIRE WOODS'
p15
sS'book_file'
p16
S'Four in Camp.txt'
p17
sS'rate'
p18
(lp19
sS'requestPoint'
p20
I20
sS'contribute_by'
p21
S'kaiying'
p22
sS'title'
p23
S'Four in Camp'
p24
sS'type'
p25
S'Adventures'
p26
sS'superuser_set_point'
p27
I0
sS'complain'
p28
(lp29
sba(iBook
Book
p30
(dp31
g3
(lp32
sg5
S'Franois Mauriac'
p33
sg7
I0
sg8
S'QUINNEYS.jpg'
p34
sg10
F1450143885.253474
sg11
I8
sg12
(lp35
sg14
S'Since the introduction of the tungsten lamp some five years ago, the manufacturers have attempted continually to produce smaller and smaller units in the standard voltages.'
p36
sg16
S'La chair et le sang.txt'
p37
sg18
(lp38
sg20
I5
sg21
S'kaiying'
p39
sg23
S'La chair et le sang'
p40
sg25
S'Education'
p41
sg27
I0
sg28
(lp42
sba(iBook
Book
p43
(dp44
g3
(lp45
sg5
S'Clair Elmore Anderson'
p46
sg7
I0
sg8
g34
sg10
F1450143885.253479
sg11
I22
sg12
(lp47
sg14
g36
sg16
S'The Fifteen Watt Tungsten Lamp.txt'
p48
sg18
(lp49
sg20
I25
sg21
g39
sg23
S'The Fifteen Watt Tungsten Lamp'
p50
sg25
g41
sg27
I0
sg28
(lp51
sba(iBook
Book
p52
(dp53
g3
(lp54
sg5
S'L. Frank Baum'
p55
sg7
I0
sg8
S'The Wonderful Wizard of Oz.jpg'
p56
sg10
F1450143885.253489
sg11
I55
sg12
(lp57
sg14
S'Folklore, legends, myths and fairy tales have followed childhood through the ages, for every healthy youngster has a wholesome andinstinctive love for stories fantastic, marvelous and manifestly unreal.'
p58
sg16
S'The Wonderful Wizard of Oz.txt'
p59
sg18
(lp60
sg20
I35
sg21
g39
sg23
S'The Wonderful Wizard of Oz'
p61
sg25
S'Adventures'
p62
sg27
I0
sg28
(lp63
sba(iBook
Book
p64
(dp65
g3
(lp66
sg5
S'Francis Chevassu'
p67
sg7
I0
sg8
g34
sg10
F1450143885.253494
sg11
I3
sg12
(lp68
sg14
S'IL est certain que la gloire a un ge. Jean-Jacques nous apparat  quarante ans, Voltaire  soixante, Musset  vingt-cinq, Hugo cinquante,'
p69
sg16
S'Visages.txt'
p70
sg18
(lp71
sg20
I10
sg21
g39
sg23
S'Visages'
p72
sg25
g41
sg27
I0
sg28
(lp73
sba(iBook
Book
p74
(dp75
g3
(lp76
sg5
S'Horace Annesley Vachell'
p77
sg7
I0
sg8
S'QUINNEYS.jpg'
p78
sg10
F1450143930.508168
sg11
I57
sg12
(lp79
sg14
S"With his back to the man, Quinney smiled.  He could remember the day, not so long ago, when Pinker, the grocer, called him 'My lad.' "
p80
sg16
S'Quinneys.txt'
p81
sg18
(lp82
sg20
I30
sg21
S'kaiying'
p83
sg23
S'Quinneys'
p84
sg25
S'history'
p85
sg27
I0
sg28
(lp86
sba.