(lp0
(iBook
Book
p1
(dp2
S'complaint'
p3
(lp4
sS'author'
p5
S'Ralph Henry Barbour'
p6
sS'number_of_complaint'
p7
I0
sS'cover_page'
p8
S'QUINNEYS.jpg'
p9
sS'last_time_read'
p10
F1450059558.361081
sS'NumOfRead'
p11
I18
sS'comments'
p12
(lp13
sS'summary'
p14
S'A STORY OF SUMMER ADVENTURES IN THE NEW HAMPSHIRE WOODS'
p15
sS'book_file'
p16
S'Four in Camp.txt'
p17
sS'rate'
p18
(lp19
sS'requestPoint'
p20
I20
sS'contribute_by'
p21
S'kaiying'
p22
sS'title'
p23
S'Four in Camp'
p24
sS'type'
p25
S'Adventures'
p26
sS'superuser_set_point'
p27
I0
sS'complain'
p28
(lp29
sba(iBook
Book
p30
(dp31
g3
(lp32
sg5
S'Franois Mauriac'
p33
sg7
I0
sg8
S'QUINNEYS.jpg'
p34
sg10
F1450061028.627972
sg11
I9
sg12
(lp35
sg14
S'Since the introduction of the tungsten lamp some five years ago, the manufacturers have attempted continually to produce smaller and smaller units in the standard voltages.'
p36
sg16
S'La chair et le sang.txt'
p37
sg18
(lp38
sg20
I5
sg21
S'kaiying'
p39
sg23
S'La chair et le sang'
p40
sg25
S'Education'
p41
sg27
I0
sg28
(lp42
sba(iBook
Book
p43
(dp44
g3
(lp45
sg5
S'Clair Elmore Anderson'
p46
sg7
I0
sg8
g9
sg10
F1450059558.361091
sg11
I22
sg12
(lp47
sg14
S'Since the introduction of the tungsten lamp some five years ago, the manufacturers have attempted continually to produce smaller and smaller units in the standard voltages.'
p48
sg16
S'The Fifteen Watt Tungsten Lamp.txt'
p49
sg18
(lp50
sg20
I25
sg21
g22
sg23
S'The Fifteen Watt Tungsten Lamp'
p51
sg25
S'Education'
p52
sg27
I0
sg28
(lp53
sba(iBook
Book
p54
(dp55
g3
(lp56
sg5
S'L. Frank Baum'
p57
sg7
I0
sg8
S'The Wonderful Wizard of Oz.jpg'
p58
sg10
F1450059558.361098
sg11
I55
sg12
(lp59
sg14
S'Folklore, legends, myths and fairy tales have followed childhood through the ages, for every healthy youngster has a wholesome andinstinctive love for stories fantastic, marvelous and manifestly unreal.'
p60
sg16
S'The Wonderful Wizard of Oz.txt'
p61
sg18
(lp62
sg20
I35
sg21
g22
sg23
S'The Wonderful Wizard of Oz'
p63
sg25
g26
sg27
I0
sg28
(lp64
sba(iBook
Book
p65
(dp66
g3
(lp67
sg5
S'Francis Chevassu'
p68
sg7
I0
sg8
g9
sg10
F1450059558.361101
sg11
I3
sg12
(lp69
sg14
S'IL est certain que la gloire a un ge. Jean-Jacques nous apparat  quarante ans, Voltaire  soixante, Musset  vingt-cinq, Hugo cinquante,'
p70
sg16
S'Visages.txt'
p71
sg18
(lp72
sg20
I10
sg21
g22
sg23
S'Visages'
p73
sg25
g52
sg27
I0
sg28
(lp74
sba(iBook
Book
p75
(dp76
g3
(lp77
sg5
S'Horace Annesley Vachell'
p78
sg7
I0
sg8
S'QUINNEYS.jpg'
p79
sg10
F1450061462.448912
sg11
I58
sg12
(lp80
sg14
S"With his back to the man, Quinney smiled.  He could remember the day, not so long ago, when Pinker, the grocer, called him 'My lad.' "
p81
sg16
S'Quinneys.txt'
p82
sg18
(lp83
sg20
I30
sg21
S'kaiying'
p84
sg23
S'Quinneys'
p85
sg25
S'history'
p86
sg27
I0
sg28
(lp87
sba(iBook
Book
p88
(dp89
g11
I0
sg5
S''
p90
sg7
I0
sg8
S'stats.h'
p91
sg10
F1450059819.497316
sg3
(lp92
sg12
(lp93
sg14
S'good one'
p94
sg16
S'XUE WEI.docx'
p95
sg18
(lp96
sg20
I50
sg21
S'mary'
p97
sg23
S'testbook1'
p98
sg25
S'entertainment'
p99
sg27
I50
sba.