(lp0
(iBook
Book
p1
(dp2
S'NumOfRead'
p3
I18
sS'comment_type'
p4
(lp5
sS'author'
p6
S'Ralph Henry Barbour'
p7
sS'number_of_complaint'
p8
I0
sS'title'
p9
S'Four in Camp'
p10
sS'last_time_read'
p11
F1450120184.032468
sS'complaint'
p12
(lp13
sS'cover_page'
p14
S'QUINNEYS.jpg'
p15
sS'summary'
p16
S'A STORY OF SUMMER ADVENTURES IN THE NEW HAMPSHIRE WOODS'
p17
sS'book_file'
p18
S'Four in Camp.txt'
p19
sS'rate'
p20
(lp21
sS'requestPoint'
p22
I20
sS'comments'
p23
(lp24
sS'contribute_by'
p25
S'kaiying'
p26
sS'type'
p27
S'Adventures'
p28
sS'superuser_set_point'
p29
I0
sS'complain'
p30
(lp31
sba(iBook
Book
p32
(dp33
g3
I8
sg4
(lp34
sg6
S'Franois Mauriac'
p35
sg8
I0
sg9
S'La chair et le sang'
p36
sg11
F1450120184.032473
sg12
(lp37
sg14
g15
sg16
S'Since the introduction of the tungsten lamp some five years ago, the manufacturers have attempted continually to produce smaller and smaller units in the standard voltages.'
p38
sg18
S'La chair et le sang.txt'
p39
sg20
(lp40
sg22
I5
sg23
(lp41
sg25
g26
sg27
S'Education'
p42
sg29
I0
sg30
(lp43
sba(iBook
Book
p44
(dp45
g3
I22
sg4
(lp46
sg6
S'Clair Elmore Anderson'
p47
sg8
I0
sg9
S'The Fifteen Watt Tungsten Lamp'
p48
sg11
F1450120184.032476
sg12
(lp49
sg14
g15
sg16
g38
sg18
S'The Fifteen Watt Tungsten Lamp.txt'
p50
sg20
(lp51
sg22
I25
sg23
(lp52
sg25
g26
sg27
g42
sg29
I0
sg30
(lp53
sba(iBook
Book
p54
(dp55
g3
I55
sg4
(lp56
sg6
S'L. Frank Baum'
p57
sg8
I0
sg9
S'The Wonderful Wizard of Oz'
p58
sg11
F1450120184.032483
sg12
(lp59
sg14
S'The Wonderful Wizard of Oz.jpg'
p60
sg16
S'Folklore, legends, myths and fairy tales have followed childhood through the ages, for every healthy youngster has a wholesome andinstinctive love for stories fantastic, marvelous and manifestly unreal.'
p61
sg18
S'The Wonderful Wizard of Oz.txt'
p62
sg20
(lp63
sg22
I35
sg23
(lp64
sg25
g26
sg27
g28
sg29
I0
sg30
(lp65
sba(iBook
Book
p66
(dp67
g3
I3
sg4
(lp68
sg6
S'Francis Chevassu'
p69
sg8
I0
sg9
S'Visages'
p70
sg11
F1450120184.032487
sg12
(lp71
sg14
g15
sg16
S'IL est certain que la gloire a un ge. Jean-Jacques nous apparat  quarante ans, Voltaire  soixante, Musset  vingt-cinq, Hugo cinquante,'
p72
sg18
S'Visages.txt'
p73
sg20
(lp74
sg22
I10
sg23
(lp75
sg25
g26
sg27
g42
sg29
I0
sg30
(lp76
sba(iBook
Book
p77
(dp78
g3
I55
sg4
(lp79
sg6
S'Horace Annesley Vachell'
p80
sg8
I0
sg9
S'Quinneys'
p81
sg11
F1450120184.03249
sg12
(lp82
sg14
g15
sg16
S"With his back to the man, Quinney smiled.  He could remember the day, not so long ago, when Pinker, the grocer, called him 'My lad.' "
p83
sg18
S'Quinneys.txt'
p84
sg20
(lp85
sg22
I30
sg23
(lp86
sg25
g26
sg27
S'history'
p87
sg29
I0
sg30
(lp88
sba(iBook
Book
p89
(dp90
g3
I0
sg4
(lp91
sg6
S''
p92
sg8
I0
sg9
S'Book1'
p93
sg11
F1450120248.509869
sg12
(lp94
sg14
S'Book1.png'
p95
sg16
S'VOUS _avez, mon cher ami, accueilli ces Essais dans le journal;\nlaissez-moi leur conserver, dans le volume, votre parrainage._'
p96
sg18
S'Book1.txt'
p97
sg20
(lp98
sg22
I100
sg23
(lp99
sg25
S'kaiying'
p100
sg27
S'csc'
p101
sg29
I100
sba(iBook
Book
p102
(dp103
g3
I0
sg4
(lp104
sg6
g92
sg8
I0
sg9
S'Book2'
p105
sg11
F1450120292.518603
sg12
(lp106
sg14
S'Book2.png'
p107
sg16
S'VOUS _avez, mon cher ami, accueilli ces Essais dans le journal;\nlaissez-moi leur conserver, dans le volume, votre parrainage._'
p108
sg18
S'Book2.txt'
p109
sg20
(lp110
sg22
I100
sg23
(lp111
sg25
S'kaiying'
p112
sg27
S'csc'
p113
sg29
I100
sba(iBook
Book
p114
(dp115
g3
I0
sg4
(lp116
sg6
g92
sg8
I0
sg9
S'Book3'
p117
sg11
F1450120378.272005
sg12
(lp118
sg14
S'Book3.png'
p119
sg16
S'VOUS _avez, mon cher ami, accueilli ces Essais dans le journal;\nlaissez-moi leur conserver, dans le volume, votre parrainage._'
p120
sg18
S'Book3.txt'
p121
sg20
(lp122
sg22
I100
sg23
(lp123
sg25
S'kaiying'
p124
sg27
S'csc'
p125
sg29
I100
sba(iBook
Book
p126
(dp127
g3
I0
sg4
(lp128
sg6
g92
sg8
I0
sg9
S'Book4'
p129
sg11
F1450120479.122745
sg12
(lp130
sg14
S'Book4.png'
p131
sg16
S'VOUS _avez, mon cher ami, accueilli ces Essais dans le journal;\nlaissez-moi leur conserver, dans le volume, votre parrainage._'
p132
sg18
S'Book4.txt'
p133
sg20
(lp134
sg22
I100
sg23
(lp135
sg25
S'kaiying'
p136
sg27
S'csc'
p137
sg29
I100
sba(iBook
Book
p138
(dp139
g3
I0
sg4
(lp140
sg6
g92
sg8
I0
sg9
S'Book5'
p141
sg11
F1450120505.843643
sg12
(lp142
sg14
S'Book5.png'
p143
sg16
S'VOUS _avez, mon cher ami, accueilli ces Essais dans le journal;\nlaissez-moi leur conserver, dans le volume, votre parrainage._'
p144
sg18
S'Book5.txt'
p145
sg20
(lp146
sg22
I100
sg23
(lp147
sg25
S'kaiying'
p148
sg27
S'csc'
p149
sg29
I100
sba(iBook
Book
p150
(dp151
g3
I0
sg4
(lp152
sg6
g92
sg8
I0
sg9
S'Book6'
p153
sg11
F1450120539.198149
sg12
(lp154
sg14
S'Book6.png'
p155
sg16
S'VOUS _avez, mon cher ami, accueilli ces Essais dans le journal;\nlaissez-moi leur conserver, dans le volume, votre parrainage._'
p156
sg18
S'Book6.txt'
p157
sg20
(lp158
sg22
I100
sg23
(lp159
sg25
S'kaiying'
p160
sg27
S'csc'
p161
sg29
I100
sba(iBook
Book
p162
(dp163
g3
I0
sg4
(lp164
sg6
g92
sg8
I0
sg9
S'Book7'
p165
sg11
F1450120567.159443
sg12
(lp166
sg14
S'Book7.png'
p167
sg16
S'VOUS _avez, mon cher ami, accueilli ces Essais dans le journal;\nlaissez-moi leur conserver, dans le volume, votre parrainage._'
p168
sg18
S'Book7.txt'
p169
sg20
(lp170
sg22
I100
sg23
(lp171
sg25
S'kaiying'
p172
sg27
S'csc'
p173
sg29
I100
sba(iBook
Book
p174
(dp175
g3
I0
sg4
(lp176
sg6
g92
sg8
I0
sg9
S'Book8'
p177
sg11
F1450120598.217987
sg12
(lp178
sg14
S'Book8.png'
p179
sg16
S'VOUS _avez, mon cher ami, accueilli ces Essais dans le journal;\nlaissez-moi leur conserver, dans le volume, votre parrainage._'
p180
sg18
S'Book8.txt'
p181
sg20
(lp182
sg22
I100
sg23
(lp183
sg25
S'kaiying'
p184
sg27
S'csc'
p185
sg29
I100
sba(iBook
Book
p186
(dp187
g3
I0
sg4
(lp188
sg6
g92
sg8
I0
sg9
S'Book9'
p189
sg11
F1450120628.536972
sg12
(lp190
sg14
S'Book9.png'
p191
sg16
S'VOUS _avez, mon cher ami, accueilli ces Essais dans le journal;\nlaissez-moi leur conserver, dans le volume, votre parrainage._'
p192
sg18
S'Book9.txt'
p193
sg20
(lp194
sg22
I150
sg23
(lp195
sg25
S'kaiying'
p196
sg27
S'math'
p197
sg29
I150
sba(iBook
Book
p198
(dp199
g3
I0
sg4
(lp200
sg6
g92
sg8
I0
sg9
S'Book10'
p201
sg11
F1450120681.018412
sg12
(lp202
sg14
S'Book10.png'
p203
sg16
S'VOUS _avez, mon cher ami, accueilli ces Essais dans le journal;\nlaissez-moi leur conserver, dans le volume, votre parrainage._'
p204
sg18
S'Book10.txt'
p205
sg20
(lp206
sg22
I200
sg23
(lp207
sg25
S'kaiying'
p208
sg27
S'csc'
p209
sg29
I200
sba.