(lp0
(iBook
Book
p1
(dp2
S'complaint'
p3
(lp4
sS'author'
p5
S'Franois Mauriac'
p6
sS'number_of_complaint'
p7
I0
sS'cover_page'
p8
S'QUINNEYS.jpg'
p9
sS'last_time_read'
p10
F1450033702.585
sS'NumOfRead'
p11
I8
sS'summary'
p12
S'Since the introduction of the tungsten lamp some five years ago, the manufacturers have attempted continually to produce smaller and smaller units in the standard voltages.'
p13
sS'book_file'
p14
S'La chair et le sang.txt'
p15
sS'requestPoint'
p16
I5
sS'contribute_by'
p17
S'kaiying'
p18
sS'title'
p19
S'La chair et le sang'
p20
sS'type'
p21
S'Education'
p22
sS'superuser_set_point'
p23
I0
sS'complain'
p24
(lp25
sba(iBook
Book
p26
(dp27
g3
(lp28
sg5
S'Clair Elmore Anderson'
p29
sg7
I0
sg8
g9
sg10
F1450033702.585
sg11
I22
sg12
g13
sg14
S'The Fifteen Watt Tungsten Lamp.txt'
p30
sg16
I25
sg17
g18
sg19
S'The Fifteen Watt Tungsten Lamp'
p31
sg21
g22
sg23
I0
sg24
(lp32
sba(iBook
Book
p33
(dp34
g3
(lp35
sg5
S'L. Frank Baum'
p36
sg7
I0
sg8
S'The Wonderful Wizard of Oz.jpg'
p37
sg10
F1450033702.585
sg11
I55
sg12
S'Folklore, legends, myths and fairy tales have followed childhood through the ages, for every healthy youngster has a wholesome andinstinctive love for stories fantastic, marvelous and manifestly unreal.'
p38
sg14
S'The Wonderful Wizard of Oz.txt'
p39
sg16
I35
sg17
g18
sg19
S'The Wonderful Wizard of Oz'
p40
sg21
S'Adventures'
p41
sg23
I0
sg24
(lp42
sba(iBook
Book
p43
(dp44
g3
(lp45
sg5
S'Horace Annesley Vachell'
p46
sg7
I0
sg8
g9
sg10
F1450033702.585
sg11
I55
sg12
S"With his back to the man, Quinney smiled.  He could remember the day, not so long ago, when Pinker, the grocer, called him 'My lad.' "
p47
sg14
S'Quinneys.txt'
p48
sg16
I30
sg17
g18
sg19
S'Quinneys'
p49
sg21
S'history'
p50
sg23
I0
sg24
(lp51
sba.