(iBook
Book
p0
(dp1
S'NumOfRead'
p2
I18
sS'author'
p3
S'Ralph Henry Barbour'
p4
sS'title'
p5
S'Four in Camp'
p6
sS'cover_page'
p7
S'QUINNEYS.jpg'
p8
sS'summary'
p9
S'A STORY OF SUMMER ADVENTURES IN THE NEW HAMPSHIRE WOODS'
p10
sS'book_file'
p11
S'Four in Camp.txt'
p12
sS'requestPoint'
p13
I20
sS'type'
p14
S'Adventures'
p15
sb.(iBook
Book
p0
(dp1
S'NumOfRead'
p2
I8
sS'author'
p3
S'Franois Mauriac'
p4
sS'title'
p5
S'La chair et le sang'
p6
sS'cover_page'
p7
S'QUINNEYS.jpg'
p8
sS'summary'
p9
S'Since the introduction of the tungsten lamp some five years ago, the manufacturers have attempted continually to produce smaller and smaller units in the standard voltages.'
p10
sS'book_file'
p11
S'La chair et le sang.txt'
p12
sS'requestPoint'
p13
I5
sS'type'
p14
S'Education'
p15
sb.(iBook
Book
p0
(dp1
S'NumOfRead'
p2
I22
sS'author'
p3
S'Clair Elmore Anderson'
p4
sS'title'
p5
S'The Fifteen Watt Tungsten Lamp'
p6
sS'cover_page'
p7
S'QUINNEYS.jpg'
p8
sS'summary'
p9
S'Since the introduction of the tungsten lamp some five years ago, the manufacturers have attempted continually to produce smaller and smaller units in the standard voltages.'
p10
sS'book_file'
p11
S'The Fifteen Watt Tungsten Lamp.txt'
p12
sS'requestPoint'
p13
I25
sS'type'
p14
S'Education'
p15
sb.(iBook
Book
p0
(dp1
S'NumOfRead'
p2
I55
sS'author'
p3
S'L. Frank Baum'
p4
sS'title'
p5
S'The Wonderful Wizard of Oz'
p6
sS'cover_page'
p7
S'The Wonderful Wizard of Oz.jpg'
p8
sS'summary'
p9
S'Folklore, legends, myths and fairy tales have followed childhood through the ages, for every healthy youngster has a wholesome andinstinctive love for stories fantastic, marvelous and manifestly unreal.'
p10
sS'book_file'
p11
S'The Wonderful Wizard of Oz.txt'
p12
sS'requestPoint'
p13
I35
sS'type'
p14
S'Adventures'
p15
sb.(iBook
Book
p0
(dp1
S'NumOfRead'
p2
I3
sS'author'
p3
S'Francis Chevassu'
p4
sS'title'
p5
S'Visages'
p6
sS'cover_page'
p7
S'QUINNEYS.jpg'
p8
sS'summary'
p9
S'IL est certain que la gloire a un ge. Jean-Jacques nous apparat  quarante ans, Voltaire  soixante, Musset  vingt-cinq, Hugo cinquante,'
p10
sS'book_file'
p11
S'Visages.txt'
p12
sS'requestPoint'
p13
I10
sS'type'
p14
S'Education'
p15
sb.(iBook
Book
p0
(dp1
S'NumOfRead'
p2
I55
sS'author'
p3
S'Horace Annesley Vachell'
p4
sS'title'
p5
S'Quinneys'
p6
sS'cover_page'
p7
S'QUINNEYS.jpg'
p8
sS'summary'
p9
S"With his back to the man, Quinney smiled.  He could remember the day, not so long ago, when Pinker, the grocer, called him 'My lad.' "
p10
sS'book_file'
p11
S'Quinneys.txt'
p12
sS'requestPoint'
p13
I30
sS'type'
p14
S'history'
p15
sb.