(lp0
(iBook
Book
p1
(dp2
S'NumOfRead'
p3
I18
sS'comment_type'
p4
(lp5
sS'author'
p6
S'Ralph Henry Barbour'
p7
sS'number_of_complaint'
p8
I0
sS'title'
p9
S'Four in Camp'
p10
sS'last_time_read'
p11
F1450066542.490396
sS'complaint'
p12
(lp13
sS'cover_page'
p14
S'QUINNEYS.jpg'
p15
sS'summary'
p16
S'A STORY OF SUMMER ADVENTURES IN THE NEW HAMPSHIRE WOODS'
p17
sS'book_file'
p18
S'Four in Camp.txt'
p19
sS'rate'
p20
(lp21
sS'requestPoint'
p22
I20
sS'comments'
p23
(lp24
sS'contribute_by'
p25
S'kaiying'
p26
sS'type'
p27
S'Adventures'
p28
sS'superuser_set_point'
p29
I0
sS'complain'
p30
(lp31
sba(iBook
Book
p32
(dp33
g3
I8
sg4
(lp34
sg6
S'Franois Mauriac'
p35
sg8
I0
sg9
S'La chair et le sang'
p36
sg11
F1450066542.490401
sg12
(lp37
sg14
g15
sg16
S'Since the introduction of the tungsten lamp some five years ago, the manufacturers have attempted continually to produce smaller and smaller units in the standard voltages.'
p38
sg18
S'La chair et le sang.txt'
p39
sg20
(lp40
sg22
I5
sg23
(lp41
sg25
g26
sg27
S'Education'
p42
sg29
I0
sg30
(lp43
sba(iBook
Book
p44
(dp45
g3
I23
sg4
(lp46
S'Doubdtful'
p47
asg6
S'Clair Elmore Anderson'
p48
sg8
I0
sg9
S'The Fifteen Watt Tungsten Lamp'
p49
sg11
F1450066606.966179
sg12
(lp50
sg14
S'QUINNEYS.jpg'
p51
sg16
S'Since the introduction of the tungsten lamp some five years ago, the manufacturers have attempted continually to produce smaller and smaller units in the standard voltages.'
p52
sg18
S'The Fifteen Watt Tungsten Lamp.txt'
p53
sg20
(lp54
S'1'
p55
asg22
I25
sg23
(lp56
S'Poor writing style'
p57
asg25
S'kaiying'
p58
sg27
S'Education'
p59
sg29
I0
sg30
(lp60
sba(iBook
Book
p61
(dp62
g3
I55
sg4
(lp63
sg6
S'L. Frank Baum'
p64
sg8
I0
sg9
S'The Wonderful Wizard of Oz'
p65
sg11
F1450066542.490412
sg12
(lp66
sg14
S'The Wonderful Wizard of Oz.jpg'
p67
sg16
S'Folklore, legends, myths and fairy tales have followed childhood through the ages, for every healthy youngster has a wholesome andinstinctive love for stories fantastic, marvelous and manifestly unreal.'
p68
sg18
S'The Wonderful Wizard of Oz.txt'
p69
sg20
(lp70
sg22
I35
sg23
(lp71
sg25
g26
sg27
g28
sg29
I0
sg30
(lp72
sba(iBook
Book
p73
(dp74
g3
I3
sg4
(lp75
sg6
S'Francis Chevassu'
p76
sg8
I0
sg9
S'Visages'
p77
sg11
F1450066542.490415
sg12
(lp78
sg14
g15
sg16
S'IL est certain que la gloire a un ge. Jean-Jacques nous apparat  quarante ans, Voltaire  soixante, Musset  vingt-cinq, Hugo cinquante,'
p79
sg18
S'Visages.txt'
p80
sg20
(lp81
sg22
I10
sg23
(lp82
sg25
g26
sg27
g42
sg29
I0
sg30
(lp83
sba(iBook
Book
p84
(dp85
g3
I55
sg4
(lp86
S'Doubdtful'
p87
asg6
S'Horace Annesley Vachell'
p88
sg8
I0
sg9
S'Quinneys'
p89
sg11
F1450066542.490419
sg12
(lp90
sg14
S'QUINNEYS.jpg'
p91
sg16
S"With his back to the man, Quinney smiled.  He could remember the day, not so long ago, when Pinker, the grocer, called him 'My lad.' "
p92
sg18
S'Quinneys.txt'
p93
sg20
(lp94
S'5'
p95
asg22
I30
sg23
(lp96
S'A great book'
p97
asg25
S'kaiying'
p98
sg27
S'history'
p99
sg29
I0
sg30
(lp100
sba.