(lp0
(iBook
Book
p1
(dp2
S'NumOfRead'
p3
I18
sS'author'
p4
S'Ralph Henry Barbour'
p5
sS'title'
p6
S'Four in Camp'
p7
sS'cover_page'
p8
S'QUINNEYS.jpg'
p9
sS'last_time_read'
p10
F1450045117.834946
sS'comments'
p11
S''
p12
sS'summary'
p13
S'A STORY OF SUMMER ADVENTURES IN THE NEW HAMPSHIRE WOODS'
p14
sS'book_file'
p15
S'Four in Camp.txt'
p16
sS'requestPoint'
p17
I20
sS'contribute_by'
p18
S'kaiying'
p19
sS'type'
p20
S'Adventures'
p21
sS'superuser_set_point'
p22
I0
sS'complain'
p23
(lp24
sba(iBook
Book
p25
(dp26
g3
I8
sg4
S'Franois Mauriac'
p27
sg6
S'La chair et le sang'
p28
sg8
g9
sg10
F1450045117.834953
sg11
g12
sg13
S'Since the introduction of the tungsten lamp some five years ago, the manufacturers have attempted continually to produce smaller and smaller units in the standard voltages.'
p29
sg15
S'La chair et le sang.txt'
p30
sg17
I5
sg18
g19
sg20
S'Education'
p31
sg22
I0
sg23
(lp32
sba(iBook
Book
p33
(dp34
g3
I22
sg4
S'Clair Elmore Anderson'
p35
sg6
S'The Fifteen Watt Tungsten Lamp'
p36
sg8
g9
sg10
F1450045117.834957
sg11
g12
sg13
g29
sg15
S'The Fifteen Watt Tungsten Lamp.txt'
p37
sg17
I25
sg18
g19
sg20
g31
sg22
I0
sg23
(lp38
sba(iBook
Book
p39
(dp40
g3
I55
sg4
S'L. Frank Baum'
p41
sg6
S'The Wonderful Wizard of Oz'
p42
sg8
S'The Wonderful Wizard of Oz.jpg'
p43
sg10
F1450045117.834966
sg11
g12
sg13
S'Folklore, legends, myths and fairy tales have followed childhood through the ages, for every healthy youngster has a wholesome andinstinctive love for stories fantastic, marvelous and manifestly unreal.'
p44
sg15
S'The Wonderful Wizard of Oz.txt'
p45
sg17
I35
sg18
g19
sg20
g21
sg22
I0
sg23
(lp46
sba(iBook
Book
p47
(dp48
g3
I4
sg4
S'Francis Chevassu'
p49
sg6
S'Visages'
p50
sg8
S'QUINNEYS.jpg'
p51
sg10
F1450045277.596863
sg11
S'great'
p52
sg13
S'IL est certain que la gloire a un ge. Jean-Jacques nous apparat  quarante ans, Voltaire  soixante, Musset  vingt-cinq, Hugo cinquante,'
p53
sg15
S'Visages.txt'
p54
sg17
I10
sg18
S'kaiying'
p55
sg20
S'Education'
p56
sg22
I0
sg23
(lp57
sba(iBook
Book
p58
(dp59
g3
I56
sg4
S'Horace Annesley Vachell'
p60
sg6
S'Quinneys'
p61
sg8
S'QUINNEYS.jpg'
p62
sg10
F1450045215.637335
sg11
S'A great book'
p63
sg13
S"With his back to the man, Quinney smiled.  He could remember the day, not so long ago, when Pinker, the grocer, called him 'My lad.' "
p64
sg15
S'Quinneys.txt'
p65
sg17
I30
sg18
S'kaiying'
p66
sg20
S'history'
p67
sg22
I0
sg23
(lp68
sba.