(lp0
(iBook
Book
p1
(dp2
S'NumOfRead'
p3
I18
sS'author'
p4
S'Ralph Henry Barbour'
p5
sS'title'
p6
S'Four in Camp'
p7
sS'cover_page'
p8
S'QUINNEYS.jpg'
p9
sS'comments'
p10
S''
p11
sS'summary'
p12
S'A STORY OF SUMMER ADVENTURES IN THE NEW HAMPSHIRE WOODS'
p13
sS'book_file'
p14
S'Four in Camp.txt'
p15
sS'requestPoint'
p16
I20
sS'contribute_by'
p17
S'kaiying'
p18
sS'superuser_set_point'
p19
I20
sS'type'
p20
S'Adventures'
p21
sS'complain'
p22
(lp23
sS'UploadBookDate'
p24
I0
sba(iBook
Book
p25
(dp26
g3
I8
sg4
S'Franois Mauriac'
p27
sg6
S'La chair et le sang'
p28
sg8
S'QUINNEYS.jpg'
p29
sg10
g11
sg12
S'Since the introduction of the tungsten lamp some five years ago, the manufacturers have attempted continually to produce smaller and smaller units in the standard voltages.'
p30
sg14
S'La chair et le sang.txt'
p31
sg16
I5
sg24
I0
sg17
S'kaiying'
p32
sg20
S'Education'
p33
sg19
I5
sg22
(lp34
sba(iBook
Book
p35
(dp36
g3
I22
sg4
S'Clair Elmore Anderson'
p37
sg6
S'The Fifteen Watt Tungsten Lamp'
p38
sg8
S'QUINNEYS.jpg'
p39
sg10
g11
sg12
S'Since the introduction of the tungsten lamp some five years ago, the manufacturers have attempted continually to produce smaller and smaller units in the standard voltages.'
p40
sg14
S'The Fifteen Watt Tungsten Lamp.txt'
p41
sg16
I25
sg24
I0
sg17
S'kaiying'
p42
sg20
S'Education'
p43
sg19
I25
sg22
(lp44
sba(iBook
Book
p45
(dp46
g3
I55
sg4
S'L. Frank Baum'
p47
sg6
S'The Wonderful Wizard of Oz'
p48
sg8
S'The Wonderful Wizard of Oz.jpg'
p49
sg10
g11
sg12
S'Folklore, legends, myths and fairy tales have followed childhood through the ages, for every healthy youngster has a wholesome andinstinctive love for stories fantastic, marvelous and manifestly unreal.'
p50
sg14
S'The Wonderful Wizard of Oz.txt'
p51
sg16
I35
sg24
I0
sg17
S'kaiying'
p52
sg20
S'Adventures'
p53
sg19
I35
sg22
(lp54
sba(iBook
Book
p55
(dp56
g3
I3
sg4
S'Francis Chevassu'
p57
sg6
S'Visages'
p58
sg8
S'QUINNEYS.jpg'
p59
sg10
g11
sg12
S'IL est certain que la gloire a un ge. Jean-Jacques nous apparat  quarante ans, Voltaire  soixante, Musset  vingt-cinq, Hugo cinquante,'
p60
sg14
S'Visages.txt'
p61
sg22
(lp62
sg16
I10
sg17
S'kaiying'
p63
sg20
S'Education'
p64
sg19
I10
sg24
I0
sba(iBook
Book
p65
(dp66
g3
I55
sg4
S'Horace Annesley Vachell'
p67
sg6
S'Quinneys'
p68
sg8
S'QUINNEYS.jpg'
p69
sg10
g11
sg12
S"With his back to the man, Quinney smiled.  He could remember the day, not so long ago, when Pinker, the grocer, called him 'My lad.' "
p70
sg14
S'Quinneys.txt'
p71
sg16
I30
sg24
I0
sg17
S'kaiying'
p72
sg20
S'history'
p73
sg19
I30
sg22
(lp74
sba.