(lp0
(iBook
Book
p1
(dp2
S'NumOfRead'
p3
I18
sS'comment_type'
p4
(lp5
sS'author'
p6
S'Ralph Henry Barbour'
p7
sS'number_of_complaint'
p8
I0
sS'title'
p9
S'Four in Camp'
p10
sS'last_time_read'
p11
F1450115019.212062
sS'complaint'
p12
(lp13
sS'cover_page'
p14
S'QUINNEYS.jpg'
p15
sS'summary'
p16
S'A STORY OF SUMMER ADVENTURES IN THE NEW HAMPSHIRE WOODS'
p17
sS'book_file'
p18
S'Four in Camp.txt'
p19
sS'rate'
p20
(lp21
sS'requestPoint'
p22
I20
sS'comments'
p23
(lp24
sS'contribute_by'
p25
S'kaiying'
p26
sS'type'
p27
S'Adventures'
p28
sS'superuser_set_point'
p29
I0
sS'complain'
p30
(lp31
sba(iBook
Book
p32
(dp33
g3
I8
sg4
(lp34
sg6
S'Franois Mauriac'
p35
sg8
I0
sg9
S'La chair et le sang'
p36
sg11
F1450115019.212068
sg12
(lp37
sg14
g15
sg16
S'Since the introduction of the tungsten lamp some five years ago, the manufacturers have attempted continually to produce smaller and smaller units in the standard voltages.'
p38
sg18
S'La chair et le sang.txt'
p39
sg20
(lp40
sg22
I5
sg23
(lp41
sg25
g26
sg27
S'Education'
p42
sg29
I0
sg30
(lp43
sba(iBook
Book
p44
(dp45
g3
I22
sg4
(lp46
sg6
S'Clair Elmore Anderson'
p47
sg8
I0
sg9
S'The Fifteen Watt Tungsten Lamp'
p48
sg11
F1450115019.212072
sg12
(lp49
sg14
g15
sg16
g38
sg18
S'The Fifteen Watt Tungsten Lamp.txt'
p50
sg20
(lp51
sg22
I25
sg23
(lp52
sg25
g26
sg27
g42
sg29
I0
sg30
(lp53
sba(iBook
Book
p54
(dp55
g3
I56
sg4
(lp56
S'Doubdtful'
p57
aS'Doubdtful'
p58
aS'Doubdtful'
p59
asg6
S'L. Frank Baum'
p60
sg8
I0
sg9
S'The Wonderful Wizard of Oz'
p61
sg11
F1450115170.366521
sg12
(lp62
sg14
S'The Wonderful Wizard of Oz.jpg'
p63
sg16
S'Folklore, legends, myths and fairy tales have followed childhood through the ages, for every healthy youngster has a wholesome andinstinctive love for stories fantastic, marvelous and manifestly unreal.'
p64
sg18
S'The Wonderful Wizard of Oz.txt'
p65
sg20
(lp66
S'4.5'
p67
aS'5'
p68
aS'4'
p69
asg22
I35
sg23
(lp70
S'wonderful read'
p71
aS'Very good book'
p72
aS'great book'
p73
asg25
S'kaiying'
p74
sg27
S'Adventures'
p75
sg29
I0
sg30
(lp76
sba(iBook
Book
p77
(dp78
g3
I4
sg4
(lp79
S'Doubdtful'
p80
asg6
S'Francis Chevassu'
p81
sg8
I0
sg9
S'Visages'
p82
sg11
F1450115295.213832
sg12
(lp83
sg14
S'QUINNEYS.jpg'
p84
sg16
S'IL est certain que la gloire a un ge. Jean-Jacques nous apparat  quarante ans, Voltaire  soixante, Musset  vingt-cinq, Hugo cinquante,'
p85
sg18
S'Visages.txt'
p86
sg20
(lp87
S'3.5'
p88
asg22
I10
sg23
(lp89
S'I like this book'
p90
asg25
S'kaiying'
p91
sg27
S'Education'
p92
sg29
I0
sg30
(lp93
sba(iBook
Book
p94
(dp95
g3
I55
sg4
(lp96
sg6
S'Horace Annesley Vachell'
p97
sg8
I0
sg9
S'Quinneys'
p98
sg11
F1450115019.212089
sg12
(lp99
sg14
g15
sg16
S"With his back to the man, Quinney smiled.  He could remember the day, not so long ago, when Pinker, the grocer, called him 'My lad.' "
p100
sg18
S'Quinneys.txt'
p101
sg20
(lp102
sg22
I30
sg23
(lp103
sg25
g26
sg27
S'history'
p104
sg29
I0
sg30
(lp105
sba.