(lp0
(iBook
Book
p1
(dp2
S'NumOfRead'
p3
I0
sS'author'
p4
S''
p5
sS'title'
p6
S'aa'
p7
sS'cover_page'
p8
S'char1.png'
p9
sS'last_time_read'
p10
F1449973055.978
sS'summary'
p11
S'afafaf'
p12
sS'book_file'
p13
S'Four in Camp.txt'
p14
sS'complain'
p15
(lp16
sS'requestPoint'
p17
I11
sS'contribute_by'
p18
S'kaiying'
p19
sS'type'
p20
S'education'
p21
sS'superuser_set_point'
p22
I11
sS'UploadBookDate'
p23
I0
sba(iBook
Book
p24
(dp25
g3
I0
sg4
g5
sg6
S'bb'
p26
sg8
S'char2.png'
p27
sg10
F1449973204.609
sg11
S'afadafv'
p28
sg13
S'La chair et le sang.txt'
p29
sg15
(lp30
sg17
I22
sg18
S'kaiying'
p31
sg20
S'story'
p32
sg22
I22
sg23
I0
sba(iBook
Book
p33
(dp34
g3
I1
sg4
g5
sg6
S'cc'
p35
sg8
S'char3.png'
p36
sg10
F1449973297.483
sg11
S'agajgajdalj'
p37
sg13
S'The Fifteen Watt Tungsten Lamp.txt'
p38
sg15
(lp39
sg17
I33
sg18
S'kaiying'
p40
sg20
S'education'
p41
sg22
I22
sg23
I0
sba.