(lp0
(iBook
Book
p1
(dp2
S'NumOfRead'
p3
I0
sS'author'
p4
S''
p5
sS'title'
p6
csip
_unpickle_type
p7
(S'PyQt4.QtCore'
p8
S'QString'
p9
(Vafaf
p10
tp11
tp12
Rp13
sS'cover_page'
p14
S'char5.png'
p15
sS'summary'
p16
g7
(g8
S'QString'
p17
(Vafafa
p18
tp19
tp20
Rp21
sS'book_file'
p22
S'Fall 2015 Final Exam Schedule.pdf'
p23
sS'requestPoint'
p24
g7
(g8
S'QString'
p25
(V111
p26
tp27
tp28
Rp29
sS'contribute_by'
p30
g7
(g8
S'QString'
p31
(Vwwwwww
p32
tp33
tp34
Rp35
sS'type'
p36
g5
sS'superuser_set_point'
p37
I111
sba.