(lp0
(iBook
Book
p1
(dp2
S'NumOfRead'
p3
I0
sS'author'
p4
S''
p5
sS'title'
p6
S'afef'
p7
sS'cover_page'
p8
S'char5.png'
p9
sS'summary'
p10
S'afafafe'
p11
sS'book_file'
p12
S'Csc-spring15-Spring14.pdf'
p13
sS'requestPoint'
p14
I11
sS'contribute_by'
p15
S'kaiying'
p16
sS'type'
p17
g5
sS'superuser_set_point'
p18
I11
sba.