(lp0
(iBook
Book
p1
(dp2
S'NumOfRead'
p3
I18
sS'author'
p4
S'Ralph Henry Barbour'
p5
sS'title'
p6
S'Four in Camp'
p7
sS'cover_page'
p8
S'QUINNEYS.jpg'
p9
sS'last_time_read'
p10
F1450036992.608858
sS'summary'
p11
S'A STORY OF SUMMER ADVENTURES IN THE NEW HAMPSHIRE WOODS'
p12
sS'book_file'
p13
S'Four in Camp.txt'
p14
sS'requestPoint'
p15
I20
sS'contribute_by'
p16
S'kaiying'
p17
sS'type'
p18
S'Adventures'
p19
sS'superuser_set_point'
p20
I0
sS'complain'
p21
(lp22
sba(iBook
Book
p23
(dp24
g3
I8
sg4
S'Franois Mauriac'
p25
sg6
S'La chair et le sang'
p26
sg8
g9
sg10
F1450036992.608864
sg11
S'Since the introduction of the tungsten lamp some five years ago, the manufacturers have attempted continually to produce smaller and smaller units in the standard voltages.'
p27
sg13
S'La chair et le sang.txt'
p28
sg15
I5
sg16
g17
sg18
S'Education'
p29
sg20
I0
sg21
(lp30
sba(iBook
Book
p31
(dp32
g3
I22
sg4
S'Clair Elmore Anderson'
p33
sg6
S'The Fifteen Watt Tungsten Lamp'
p34
sg8
g9
sg10
F1450036992.608874
sg11
g27
sg13
S'The Fifteen Watt Tungsten Lamp.txt'
p35
sg15
I25
sg16
g17
sg18
g29
sg20
I0
sg21
(lp36
sba(iBook
Book
p37
(dp38
g3
I55
sg4
S'L. Frank Baum'
p39
sg6
S'The Wonderful Wizard of Oz'
p40
sg8
S'The Wonderful Wizard of Oz.jpg'
p41
sg10
F1450036992.608878
sg11
S'Folklore, legends, myths and fairy tales have followed childhood through the ages, for every healthy youngster has a wholesome andinstinctive love for stories fantastic, marvelous and manifestly unreal.'
p42
sg13
S'The Wonderful Wizard of Oz.txt'
p43
sg15
I35
sg16
g17
sg18
g19
sg20
I0
sg21
(lp44
sba(iBook
Book
p45
(dp46
g3
I3
sg4
S'Francis Chevassu'
p47
sg6
S'Visages'
p48
sg8
g9
sg10
F1450036992.608882
sg11
S'IL est certain que la gloire a un ge. Jean-Jacques nous apparat  quarante ans, Voltaire  soixante, Musset  vingt-cinq, Hugo cinquante,'
p49
sg13
S'Visages.txt'
p50
sg15
I10
sg16
g17
sg18
g29
sg20
I0
sg21
(lp51
sba(iBook
Book
p52
(dp53
g3
I66
sg4
S'Horace Annesley Vachell'
p54
sg6
S'Quinneys'
p55
sg8
S'QUINNEYS.jpg'
p56
sg10
F1450039662.735344
sg11
S"With his back to the man, Quinney smiled.  He could remember the day, not so long ago, when Pinker, the grocer, called him 'My lad.' "
p57
sg13
S'Quinneys.txt'
p58
sg15
I30
sg16
S'kaiying'
p59
sg18
S'history'
p60
sg20
I0
sg21
(lp61
sba.