(lp0
(iBook
Book
p1
(dp2
S'NumOfRead'
p3
I0
sS'author'
p4
S''
p5
sS'title'
p6
S'ascasc'
p7
sS'cover_page'
p8
S'char3.png'
p9
sS'summary'
p10
S'afevafcasfafas'
p11
sS'book_file'
p12
S'Fall 2015 Final Exam Schedule.pdf'
p13
sS'requestPoint'
p14
I111
sS'contribute_by'
p15
csip
_unpickle_type
p16
(S'PyQt4.QtCore'
p17
S'QString'
p18
(Vwwwwww
p19
tp20
tp21
Rp22
sS'type'
p23
g5
sS'superuser_set_point'
p24
I11
sba.