(lp0
(iBook
Book
p1
(dp2
S'NumOfRead'
p3
I21
sS'author'
p4
S'Ralph Henry Barbour'
p5
sS'title'
p6
S'Four in Camp'
p7
sS'cover_page'
p8
S'QUINNEYS.jpg'
p9
sS'last_time_read'
p10
F1449979015.314
sS'summary'
p11
S'A STORY OF SUMMER ADVENTURES IN THE NEW HAMPSHIRE WOODS'
p12
sS'book_file'
p13
S'Four in Camp.txt'
p14
sS'requestPoint'
p15
I20
sS'contribute_by'
p16
S'kaiying'
p17
sS'type'
p18
S'Adventures'
p19
sS'superuser_set_point'
p20
I20
sS'complain'
p21
(lp22
sba(iBook
Book
p23
(dp24
g3
I8
sg4
S'Franois Mauriac'
p25
sg6
S'La chair et le sang'
p26
sg8
S'QUINNEYS.jpg'
p27
sg10
F1449976295.068
sg11
S'Since the introduction of the tungsten lamp some five years ago, the manufacturers have attempted continually to produce smaller and smaller units in the standard voltages.'
p28
sg13
S'La chair et le sang.txt'
p29
sg15
I5
sg16
S'kaiying'
p30
sg18
S'Education'
p31
sg20
I5
sg21
(lp32
sba(iBook
Book
p33
(dp34
g3
I22
sg4
S'Clair Elmore Anderson'
p35
sg6
S'The Fifteen Watt Tungsten Lamp'
p36
sg8
S'QUINNEYS.jpg'
p37
sg10
F1449976295.068
sg11
S'Since the introduction of the tungsten lamp some five years ago, the manufacturers have attempted continually to produce smaller and smaller units in the standard voltages.'
p38
sg13
S'The Fifteen Watt Tungsten Lamp.txt'
p39
sg15
I25
sg16
S'kaiying'
p40
sg18
S'Education'
p41
sg20
I25
sg21
(lp42
sba(iBook
Book
p43
(dp44
g3
I55
sg4
S'L. Frank Baum'
p45
sg6
S'The Wonderful Wizard of Oz'
p46
sg8
S'The Wonderful Wizard of Oz.jpg'
p47
sg10
F1449976295.068
sg11
S'Folklore, legends, myths and fairy tales have followed childhood through the ages, for every healthy youngster has a wholesome andinstinctive love for stories fantastic, marvelous and manifestly unreal.'
p48
sg13
S'The Wonderful Wizard of Oz.txt'
p49
sg15
I35
sg16
S'kaiying'
p50
sg18
S'Adventures'
p51
sg20
I35
sg21
(lp52
sba(iBook
Book
p53
(dp54
g3
I4
sg4
S'Francis Chevassu'
p55
sg6
S'Visages'
p56
sg8
S'QUINNEYS.jpg'
p57
sg10
F1449979214.483
sg11
S'IL est certain que la gloire a un ge. Jean-Jacques nous apparat  quarante ans, Voltaire  soixante, Musset  vingt-cinq, Hugo cinquante,'
p58
sg13
S'Visages.txt'
p59
sg15
I10
sg16
S'kaiying'
p60
sg18
S'Education'
p61
sg20
I10
sg21
(lp62
sba(iBook
Book
p63
(dp64
g3
I57
sg4
S'Horace Annesley Vachell'
p65
sg6
S'Quinneys'
p66
sg8
S'QUINNEYS.jpg'
p67
sg10
F1449979035.35
sg11
S"With his back to the man, Quinney smiled.  He could remember the day, not so long ago, when Pinker, the grocer, called him 'My lad.' "
p68
sg13
S'Quinneys.txt'
p69
sg15
I30
sg16
S'kaiying'
p70
sg18
S'history'
p71
sg20
I0
sg21
(lp72
sba.