(lp0
(iBook
Book
p1
(dp2
S'NumOfRead'
p3
I18
sS'author'
p4
S'Ralph Henry Barbour'
p5
sS'number_of_complaint'
p6
I0
sS'title'
p7
S'Four in Camp'
p8
sS'last_time_read'
p9
F1450148626.333
sS'complaint'
p10
(lp11
sS'cover_page'
p12
S'QUINNEYS.jpg'
p13
sS'summary'
p14
S'A STORY OF SUMMER ADVENTURES IN THE NEW HAMPSHIRE WOODS'
p15
sS'book_file'
p16
S'Four in Camp.txt'
p17
sS'rate'
p18
(lp19
sS'requestPoint'
p20
I20
sS'comments'
p21
(lp22
sS'contribute_by'
p23
S'kaiying'
p24
sS'type'
p25
S'Adventures'
p26
sS'superuser_set_point'
p27
I0
sS'complain'
p28
(lp29
sba(iBook
Book
p30
(dp31
g3
I8
sg4
S'Franois Mauriac'
p32
sg6
I0
sg7
S'La chair et le sang'
p33
sg9
F1450148626.333
sg10
(lp34
sg12
g13
sg14
S'Since the introduction of the tungsten lamp some five years ago, the manufacturers have attempted continually to produce smaller and smaller units in the standard voltages.'
p35
sg16
S'La chair et le sang.txt'
p36
sg18
(lp37
sg20
I5
sg21
(lp38
sg23
g24
sg25
S'Education'
p39
sg27
I0
sg28
(lp40
sba(iBook
Book
p41
(dp42
g3
I22
sg4
S'Clair Elmore Anderson'
p43
sg6
I0
sg7
S'The Fifteen Watt Tungsten Lamp'
p44
sg9
F1450148626.333
sg10
(lp45
sg12
g13
sg14
g35
sg16
S'The Fifteen Watt Tungsten Lamp.txt'
p46
sg18
(lp47
sg20
I25
sg21
(lp48
sg23
g24
sg25
g39
sg27
I0
sg28
(lp49
sba(iBook
Book
p50
(dp51
g3
I55
sg4
S'L. Frank Baum'
p52
sg6
I0
sg7
S'The Wonderful Wizard of Oz'
p53
sg9
F1450148626.333
sg10
(lp54
sg12
S'The Wonderful Wizard of Oz.jpg'
p55
sg14
S'Folklore, legends, myths and fairy tales have followed childhood through the ages, for every healthy youngster has a wholesome andinstinctive love for stories fantastic, marvelous and manifestly unreal.'
p56
sg16
S'The Wonderful Wizard of Oz.txt'
p57
sg18
(lp58
sg20
I35
sg21
(lp59
sg23
g24
sg25
g26
sg27
I0
sg28
(lp60
sba(iBook
Book
p61
(dp62
g3
I3
sg4
S'Francis Chevassu'
p63
sg6
I0
sg7
S'Visages'
p64
sg9
F1450148626.333
sg10
(lp65
sg12
g13
sg14
S'IL est certain que la gloire a un ge. Jean-Jacques nous apparat  quarante ans, Voltaire  soixante, Musset  vingt-cinq, Hugo cinquante,'
p66
sg16
S'Visages.txt'
p67
sg18
(lp68
sg20
I10
sg21
(lp69
sg23
g24
sg25
g39
sg27
I0
sg28
(lp70
sba(iBook
Book
p71
(dp72
g3
I55
sg4
S'Horace Annesley Vachell'
p73
sg6
I0
sg7
S'Quinneys'
p74
sg9
F1450148626.333
sg10
(lp75
sg12
g13
sg14
S"With his back to the man, Quinney smiled.  He could remember the day, not so long ago, when Pinker, the grocer, called him 'My lad.' "
p76
sg16
S'Quinneys.txt'
p77
sg18
(lp78
sg20
I30
sg21
(lp79
sg23
g24
sg25
S'history'
p80
sg27
I0
sg28
(lp81
sba.