(lp0
(iBook
Book
p1
(dp2
S'NumOfRead'
p3
I19
sS'comment_type'
p4
(lp5
sS'author'
p6
S'Ralph Henry Barbour'
p7
sS'number_of_complaint'
p8
I0
sS'title'
p9
S'Four in Camp'
p10
sS'last_time_read'
p11
F1450127896.999104
sS'complaint'
p12
(lp13
sS'cover_page'
p14
S'QUINNEYS.jpg'
p15
sS'summary'
p16
S'A STORY OF SUMMER ADVENTURES IN THE NEW HAMPSHIRE WOODS'
p17
sS'book_file'
p18
S'Four in Camp.txt'
p19
sS'rate'
p20
(lp21
sS'requestPoint'
p22
I20
sS'comments'
p23
(lp24
sS'contribute_by'
p25
S'kaiying'
p26
sS'type'
p27
S'Adventures'
p28
sS'superuser_set_point'
p29
I0
sS'complain'
p30
(lp31
sba(iBook
Book
p32
(dp33
g3
I9
sg4
(lp34
S'Doubdtful'
p35
asg6
S'Franois Mauriac'
p36
sg8
I0
sg9
S'La chair et le sang'
p37
sg11
F1450128153.273328
sg12
(lp38
sg14
S'QUINNEYS.jpg'
p39
sg16
S'Since the introduction of the tungsten lamp some five years ago, the manufacturers have attempted continually to produce smaller and smaller units in the standard voltages.'
p40
sg18
S'La chair et le sang.txt'
p41
sg20
(lp42
S'4'
p43
asg22
I5
sg23
(lp44
S'good'
p45
asg25
S'kaiying'
p46
sg27
S'Education'
p47
sg29
I0
sg30
(lp48
sba(iBook
Book
p49
(dp50
g3
I22
sg4
(lp51
sg6
S'Clair Elmore Anderson'
p52
sg8
I0
sg9
S'The Fifteen Watt Tungsten Lamp'
p53
sg11
F1450125381.155265
sg12
(lp54
sg14
S'QUINNEYS.jpg'
p55
sg16
S'Since the introduction of the tungsten lamp some five years ago, the manufacturers have attempted continually to produce smaller and smaller units in the standard voltages.'
p56
sg18
S'The Fifteen Watt Tungsten Lamp.txt'
p57
sg20
(lp58
sg22
I25
sg23
(lp59
sg25
S'kaiying'
p60
sg27
S'Education'
p61
sg29
I0
sg30
(lp62
sba(iBook
Book
p63
(dp64
g3
I56
sg4
(lp65
sg6
S'L. Frank Baum'
p66
sg8
I0
sg9
S'The Wonderful Wizard of Oz'
p67
sg11
F1450128069.659456
sg12
(lp68
sg14
S'The Wonderful Wizard of Oz.jpg'
p69
sg16
S'Folklore, legends, myths and fairy tales have followed childhood through the ages, for every healthy youngster has a wholesome andinstinctive love for stories fantastic, marvelous and manifestly unreal.'
p70
sg18
S'The Wonderful Wizard of Oz.txt'
p71
sg20
(lp72
sg22
I35
sg23
(lp73
sg25
S'kaiying'
p74
sg27
S'Adventures'
p75
sg29
I0
sg30
(lp76
sba(iBook
Book
p77
(dp78
g3
I3
sg4
(lp79
sg6
S'Francis Chevassu'
p80
sg8
I0
sg9
S'Visages'
p81
sg11
F1450125381.155278
sg12
(lp82
sg14
g55
sg16
S'IL est certain que la gloire a un ge. Jean-Jacques nous apparat  quarante ans, Voltaire  soixante, Musset  vingt-cinq, Hugo cinquante,'
p83
sg18
S'Visages.txt'
p84
sg20
(lp85
sg22
I10
sg23
(lp86
sg25
g60
sg27
g61
sg29
I0
sg30
(lp87
sba(iBook
Book
p88
(dp89
g3
I55
sg4
(lp90
sg6
S'Horace Annesley Vachell'
p91
sg8
I0
sg9
S'Quinneys'
p92
sg11
F1450125381.155284
sg12
(lp93
sg14
g55
sg16
S"With his back to the man, Quinney smiled.  He could remember the day, not so long ago, when Pinker, the grocer, called him 'My lad.' "
p94
sg18
S'Quinneys.txt'
p95
sg20
(lp96
sg22
I30
sg23
(lp97
sg25
g60
sg27
S'history'
p98
sg29
I0
sg30
(lp99
sba.