(lp0
(iBook
Book
p1
(dp2
S'NumOfRead'
p3
I21
sS'comment_type'
p4
(lp5
S'Doubdtful'
p6
aS'Doubdtful'
p7
asS'author'
p8
S'Ralph Henry Barbour'
p9
sS'number_of_complaint'
p10
I1
sS'title'
p11
S'Four in Camp'
p12
sS'last_time_read'
p13
F1450141230.067
sS'complaint'
p14
(lp15
sS'cover_page'
p16
S'QUINNEYS.jpg'
p17
sS'summary'
p18
S'A STORY OF SUMMER ADVENTURES IN THE NEW HAMPSHIRE WOODS'
p19
sS'book_file'
p20
S'Four in Camp.txt'
p21
sS'rate'
p22
(lp23
S'3'
p24
aS'2'
p25
asS'requestPoint'
p26
I20
sS'comments'
p27
(lp28
S'afaeaf3'
p29
aS'afae'
p30
asS'contribute_by'
p31
S'kaiying'
p32
sS'type'
p33
S'Adventures'
p34
sS'superuser_set_point'
p35
I0
sS'complain'
p36
(lp37
sba(iBook
Book
p38
(dp39
g3
I8
sg4
(lp40
sg8
S'Franois Mauriac'
p41
sg10
I0
sg11
S'La chair et le sang'
p42
sg13
F1450120184.032473
sg14
(lp43
sg16
S'QUINNEYS.jpg'
p44
sg18
S'Since the introduction of the tungsten lamp some five years ago, the manufacturers have attempted continually to produce smaller and smaller units in the standard voltages.'
p45
sg20
S'La chair et le sang.txt'
p46
sg22
(lp47
sg26
I5
sg27
(lp48
sg31
S'kaiying'
p49
sg33
S'Education'
p50
sg35
I0
sg36
(lp51
sba(iBook
Book
p52
(dp53
g3
I22
sg4
(lp54
sg8
S'Clair Elmore Anderson'
p55
sg10
I0
sg11
S'The Fifteen Watt Tungsten Lamp'
p56
sg13
F1450120184.032476
sg14
(lp57
sg16
g44
sg18
g45
sg20
S'The Fifteen Watt Tungsten Lamp.txt'
p58
sg22
(lp59
sg26
I25
sg27
(lp60
sg31
g49
sg33
g50
sg35
I0
sg36
(lp61
sba(iBook
Book
p62
(dp63
g3
I55
sg4
(lp64
sg8
S'L. Frank Baum'
p65
sg10
I0
sg11
S'The Wonderful Wizard of Oz'
p66
sg13
F1450120184.032483
sg14
(lp67
sg16
S'The Wonderful Wizard of Oz.jpg'
p68
sg18
S'Folklore, legends, myths and fairy tales have followed childhood through the ages, for every healthy youngster has a wholesome andinstinctive love for stories fantastic, marvelous and manifestly unreal.'
p69
sg20
S'The Wonderful Wizard of Oz.txt'
p70
sg22
(lp71
sg26
I35
sg27
(lp72
sg31
g49
sg33
S'Adventures'
p73
sg35
I0
sg36
(lp74
sba(iBook
Book
p75
(dp76
g3
I3
sg4
(lp77
sg8
S'Francis Chevassu'
p78
sg10
I0
sg11
S'Visages'
p79
sg13
F1450120184.032487
sg14
(lp80
sg16
g44
sg18
S'IL est certain que la gloire a un ge. Jean-Jacques nous apparat  quarante ans, Voltaire  soixante, Musset  vingt-cinq, Hugo cinquante,'
p81
sg20
S'Visages.txt'
p82
sg22
(lp83
sg26
I10
sg27
(lp84
sg31
g49
sg33
g50
sg35
I0
sg36
(lp85
sba(iBook
Book
p86
(dp87
g3
I55
sg4
(lp88
sg8
S'Horace Annesley Vachell'
p89
sg10
I0
sg11
S'Quinneys'
p90
sg13
F1450120184.03249
sg14
(lp91
sg16
g44
sg18
S"With his back to the man, Quinney smiled.  He could remember the day, not so long ago, when Pinker, the grocer, called him 'My lad.' "
p92
sg20
S'Quinneys.txt'
p93
sg22
(lp94
sg26
I30
sg27
(lp95
sg31
g49
sg33
S'history'
p96
sg35
I0
sg36
(lp97
sba(iBook
Book
p98
(dp99
g3
I0
sg4
(lp100
sg8
S''
p101
sg10
I0
sg11
S'Book1'
p102
sg13
F1450120248.509869
sg14
(lp103
sg16
S'Book1.png'
p104
sg18
S'VOUS _avez, mon cher ami, accueilli ces Essais dans le journal;\nlaissez-moi leur conserver, dans le volume, votre parrainage._'
p105
sg20
S'Book1.txt'
p106
sg22
(lp107
sg26
I100
sg27
(lp108
sg31
S'kaiying'
p109
sg33
S'csc'
p110
sg35
I100
sba(iBook
Book
p111
(dp112
g3
I0
sg4
(lp113
sg8
g101
sg10
I0
sg11
S'Book2'
p114
sg13
F1450120292.518603
sg14
(lp115
sg16
S'Book2.png'
p116
sg18
S'VOUS _avez, mon cher ami, accueilli ces Essais dans le journal;\nlaissez-moi leur conserver, dans le volume, votre parrainage._'
p117
sg20
S'Book2.txt'
p118
sg22
(lp119
sg26
I100
sg27
(lp120
sg31
S'kaiying'
p121
sg33
S'csc'
p122
sg35
I100
sba(iBook
Book
p123
(dp124
g3
I0
sg4
(lp125
sg8
g101
sg10
I0
sg11
S'Book3'
p126
sg13
F1450120378.272005
sg14
(lp127
sg16
S'Book3.png'
p128
sg18
S'VOUS _avez, mon cher ami, accueilli ces Essais dans le journal;\nlaissez-moi leur conserver, dans le volume, votre parrainage._'
p129
sg20
S'Book3.txt'
p130
sg22
(lp131
sg26
I100
sg27
(lp132
sg31
S'kaiying'
p133
sg33
S'csc'
p134
sg35
I100
sba(iBook
Book
p135
(dp136
g3
I0
sg4
(lp137
sg8
g101
sg10
I0
sg11
S'Book4'
p138
sg13
F1450120479.122745
sg14
(lp139
sg16
S'Book4.png'
p140
sg18
S'VOUS _avez, mon cher ami, accueilli ces Essais dans le journal;\nlaissez-moi leur conserver, dans le volume, votre parrainage._'
p141
sg20
S'Book4.txt'
p142
sg22
(lp143
sg26
I100
sg27
(lp144
sg31
S'kaiying'
p145
sg33
S'csc'
p146
sg35
I100
sba(iBook
Book
p147
(dp148
g3
I0
sg4
(lp149
sg8
g101
sg10
I0
sg11
S'Book5'
p150
sg13
F1450120505.843643
sg14
(lp151
sg16
S'Book5.png'
p152
sg18
S'VOUS _avez, mon cher ami, accueilli ces Essais dans le journal;\nlaissez-moi leur conserver, dans le volume, votre parrainage._'
p153
sg20
S'Book5.txt'
p154
sg22
(lp155
sg26
I100
sg27
(lp156
sg31
S'kaiying'
p157
sg33
S'csc'
p158
sg35
I100
sba(iBook
Book
p159
(dp160
g3
I0
sg4
(lp161
sg8
g101
sg10
I0
sg11
S'Book6'
p162
sg13
F1450120539.198149
sg14
(lp163
sg16
S'Book6.png'
p164
sg18
S'VOUS _avez, mon cher ami, accueilli ces Essais dans le journal;\nlaissez-moi leur conserver, dans le volume, votre parrainage._'
p165
sg20
S'Book6.txt'
p166
sg22
(lp167
sg26
I100
sg27
(lp168
sg31
S'kaiying'
p169
sg33
S'csc'
p170
sg35
I100
sba(iBook
Book
p171
(dp172
g3
I0
sg4
(lp173
sg8
g101
sg10
I0
sg11
S'Book7'
p174
sg13
F1450120567.159443
sg14
(lp175
sg16
S'Book7.png'
p176
sg18
S'VOUS _avez, mon cher ami, accueilli ces Essais dans le journal;\nlaissez-moi leur conserver, dans le volume, votre parrainage._'
p177
sg20
S'Book7.txt'
p178
sg22
(lp179
sg26
I100
sg27
(lp180
sg31
S'kaiying'
p181
sg33
S'csc'
p182
sg35
I100
sba(iBook
Book
p183
(dp184
g3
I0
sg4
(lp185
sg8
g101
sg10
I0
sg11
S'Book8'
p186
sg13
F1450120598.217987
sg14
(lp187
sg16
S'Book8.png'
p188
sg18
S'VOUS _avez, mon cher ami, accueilli ces Essais dans le journal;\nlaissez-moi leur conserver, dans le volume, votre parrainage._'
p189
sg20
S'Book8.txt'
p190
sg22
(lp191
sg26
I100
sg27
(lp192
sg31
S'kaiying'
p193
sg33
S'csc'
p194
sg35
I100
sba(iBook
Book
p195
(dp196
g3
I0
sg4
(lp197
sg8
g101
sg10
I0
sg11
S'Book9'
p198
sg13
F1450120628.536972
sg14
(lp199
sg16
S'Book9.png'
p200
sg18
S'VOUS _avez, mon cher ami, accueilli ces Essais dans le journal;\nlaissez-moi leur conserver, dans le volume, votre parrainage._'
p201
sg20
S'Book9.txt'
p202
sg22
(lp203
sg26
I150
sg27
(lp204
sg31
S'kaiying'
p205
sg33
S'math'
p206
sg35
I150
sba(iBook
Book
p207
(dp208
g3
I0
sg4
(lp209
sg8
g101
sg10
I0
sg11
S'Book10'
p210
sg13
F1450120681.018412
sg14
(lp211
sg16
S'Book10.png'
p212
sg18
S'VOUS _avez, mon cher ami, accueilli ces Essais dans le journal;\nlaissez-moi leur conserver, dans le volume, votre parrainage._'
p213
sg20
S'Book10.txt'
p214
sg22
(lp215
sg26
I200
sg27
(lp216
sg31
S'kaiying'
p217
sg33
S'csc'
p218
sg35
I200
sba(iBook
Book
p219
(dp220
g3
I0
sg4
(lp221
sg8
g101
sg10
I0
sg11
S'afa'
p222
sg13
F1450125264.451
sg14
(lp223
sg16
S'char4.png'
p224
sg18
S'afeadf'
p225
sg20
S'Four in Camp.txt'
p226
sg22
(lp227
sg26
I111
sg27
(lp228
sg31
S'kaiying'
p229
sg33
S'book'
p230
sg35
I11
sba(iBook
Book
p231
(dp232
g3
I0
sg4
(lp233
sg8
g101
sg10
I0
sg11
S'af'
p234
sg13
F1450125458.108
sg14
(lp235
sg16
S'char3.png'
p236
sg18
S'aefgaeafa'
p237
sg20
S'Four in Camp.txt'
p238
sg22
(lp239
sg26
I111
sg27
(lp240
sg31
S'joe'
p241
sg33
S'af'
p242
sg35
I50
sba.