(lp0
(iBook
Book
p1
(dp2
S'complaint'
p3
(lp4
sS'author'
p5
S'Ralph Henry Barbour'
p6
sS'number_of_complaint'
p7
I0
sS'cover_page'
p8
S'QUINNEYS.jpg'
p9
sS'last_time_read'
p10
F1450050926.914
sS'NumOfRead'
p11
I18
sS'summary'
p12
S'A STORY OF SUMMER ADVENTURES IN THE NEW HAMPSHIRE WOODS'
p13
sS'book_file'
p14
S'Four in Camp.txt'
p15
sS'requestPoint'
p16
I20
sS'contribute_by'
p17
S'kaiying'
p18
sS'title'
p19
S'Four in Camp'
p20
sS'type'
p21
S'Adventures'
p22
sS'superuser_set_point'
p23
I0
sS'complain'
p24
(lp25
sba(iBook
Book
p26
(dp27
g3
(lp28
sg5
S'Franois Mauriac'
p29
sg7
I0
sg8
g9
sg10
F1450050926.914
sg11
I8
sg12
S'Since the introduction of the tungsten lamp some five years ago, the manufacturers have attempted continually to produce smaller and smaller units in the standard voltages.'
p30
sg14
S'La chair et le sang.txt'
p31
sg16
I5
sg17
g18
sg19
S'La chair et le sang'
p32
sg21
S'Education'
p33
sg23
I0
sg24
(lp34
sba(iBook
Book
p35
(dp36
g3
(lp37
sg5
S'Clair Elmore Anderson'
p38
sg7
I0
sg8
g9
sg10
F1450050926.914
sg11
I22
sg12
g30
sg14
S'The Fifteen Watt Tungsten Lamp.txt'
p39
sg16
I25
sg17
g18
sg19
S'The Fifteen Watt Tungsten Lamp'
p40
sg21
g33
sg23
I0
sg24
(lp41
sba(iBook
Book
p42
(dp43
g3
(lp44
sg5
S'L. Frank Baum'
p45
sg7
I0
sg8
S'The Wonderful Wizard of Oz.jpg'
p46
sg10
F1450050926.914
sg11
I55
sg12
S'Folklore, legends, myths and fairy tales have followed childhood through the ages, for every healthy youngster has a wholesome andinstinctive love for stories fantastic, marvelous and manifestly unreal.'
p47
sg14
S'The Wonderful Wizard of Oz.txt'
p48
sg16
I35
sg17
g18
sg19
S'The Wonderful Wizard of Oz'
p49
sg21
g22
sg23
I0
sg24
(lp50
sba(iBook
Book
p51
(dp52
g3
(lp53
S'copy right'
p54
asg5
S'Francis Chevassu'
p55
sg7
I0
sg8
S'QUINNEYS.jpg'
p56
sg10
F1450050926.914
sg11
I3
sg12
S'IL est certain que la gloire a un ge. Jean-Jacques nous apparat  quarante ans, Voltaire  soixante, Musset  vingt-cinq, Hugo cinquante,'
p57
sg14
S'Visages.txt'
p58
sg16
I10
sg17
S'kaiying'
p59
sg19
S'Visages'
p60
sg21
S'Education'
p61
sg23
I0
sg24
(lp62
sba(iBook
Book
p63
(dp64
g3
(lp65
sg5
S'Horace Annesley Vachell'
p66
sg7
I0
sg8
g9
sg10
F1450050926.914
sg11
I55
sg12
S"With his back to the man, Quinney smiled.  He could remember the day, not so long ago, when Pinker, the grocer, called him 'My lad.' "
p67
sg14
S'Quinneys.txt'
p68
sg16
I30
sg17
g18
sg19
S'Quinneys'
p69
sg21
S'history'
p70
sg23
I0
sg24
(lp71
sba.