(lp0
(iBook
Book
p1
(dp2
S'NumOfRead'
p3
I0
sS'author'
p4
S''
p5
sS'title'
p6
S'aa'
p7
sS'cover_page'
p8
S'char4.png'
p9
sS'summary'
p10
S'afasf'
p11
sS'book_file'
p12
S'connectDatabase.php'
p13
sS'complain'
p14
(lp15
sS'requestPoint'
p16
I33
sS'contribute_by'
p17
S'kaiying'
p18
sS'type'
p19
g5
sS'superuser_set_point'
p20
I33
sS'UploadBookDate'
p21
I0
sba.