(lp0
(iBook
Book
p1
(dp2
S'NumOfRead'
p3
I18
sS'author'
p4
S'Ralph Henry Barbour'
p5
sS'number_of_complaint'
p6
I0
sS'cover_page'
p7
S'QUINNEYS.jpg'
p8
sS'last_time_read'
p9
F1450057225.51727
sS'complaint'
p10
(lp11
sS'comments'
p12
(lp13
sS'summary'
p14
S'A STORY OF SUMMER ADVENTURES IN THE NEW HAMPSHIRE WOODS'
p15
sS'book_file'
p16
S'Four in Camp.txt'
p17
sS'rate'
p18
(lp19
sS'requestPoint'
p20
I20
sS'contribute_by'
p21
S'kaiying'
p22
sS'title'
p23
S'Four in Camp'
p24
sS'type'
p25
S'Adventures'
p26
sS'superuser_set_point'
p27
I0
sS'complain'
p28
(lp29
sba(iBook
Book
p30
(dp31
g3
I8
sg4
S'Franois Mauriac'
p32
sg6
I0
sg7
g8
sg9
F1450057225.517276
sg10
(lp33
sg12
(lp34
sg14
S'Since the introduction of the tungsten lamp some five years ago, the manufacturers have attempted continually to produce smaller and smaller units in the standard voltages.'
p35
sg16
S'La chair et le sang.txt'
p36
sg18
(lp37
sg20
I5
sg21
g22
sg23
S'La chair et le sang'
p38
sg25
S'Education'
p39
sg27
I0
sg28
(lp40
sba(iBook
Book
p41
(dp42
g3
I22
sg4
S'Clair Elmore Anderson'
p43
sg6
I0
sg7
g8
sg9
F1450057225.517281
sg10
(lp44
sg12
(lp45
sg14
g35
sg16
S'The Fifteen Watt Tungsten Lamp.txt'
p46
sg18
(lp47
sg20
I25
sg21
g22
sg23
S'The Fifteen Watt Tungsten Lamp'
p48
sg25
g39
sg27
I0
sg28
(lp49
sba(iBook
Book
p50
(dp51
g3
I55
sg4
S'L. Frank Baum'
p52
sg6
I0
sg7
S'The Wonderful Wizard of Oz.jpg'
p53
sg9
F1450057225.517285
sg10
(lp54
sg12
(lp55
sg14
S'Folklore, legends, myths and fairy tales have followed childhood through the ages, for every healthy youngster has a wholesome andinstinctive love for stories fantastic, marvelous and manifestly unreal.'
p56
sg16
S'The Wonderful Wizard of Oz.txt'
p57
sg18
(lp58
sg20
I35
sg21
g22
sg23
S'The Wonderful Wizard of Oz'
p59
sg25
g26
sg27
I0
sg28
(lp60
sba(iBook
Book
p61
(dp62
g10
(lp63
S''
p64
asg4
S'Francis Chevassu'
p65
sg6
I0
sg7
S'QUINNEYS.jpg'
p66
sg9
F1450058841.255059
sg3
I4
sg12
(lp67
S'great book'
p68
aS'great book'
p69
asg14
S'IL est certain que la gloire a un ge. Jean-Jacques nous apparat  quarante ans, Voltaire  soixante, Musset  vingt-cinq, Hugo cinquante,'
p70
sg16
S'Visages.txt'
p71
sg18
(lp72
S'5'
p73
aS'5'
p74
asg20
I10
sg21
S'kaiying'
p75
sg23
S'Visages'
p76
sg25
S'Education'
p77
sg27
I0
sg28
(lp78
sba(iBook
Book
p79
(dp80
g10
(lp81
sg4
S'Horace Annesley Vachell'
p82
sg6
I0
sg7
S'QUINNEYS.jpg'
p83
sg9
F1450057259.927379
sg3
I56
sg12
(lp84
S'a very good book!'
p85
asg14
S"With his back to the man, Quinney smiled.  He could remember the day, not so long ago, when Pinker, the grocer, called him 'My lad.' "
p86
sg16
S'Quinneys.txt'
p87
sg18
(lp88
S'5'
p89
asg20
I30
sg21
S'kaiying'
p90
sg23
S'Quinneys'
p91
sg25
S'history'
p92
sg27
I0
sg28
(lp93
sba.