(iBook
Book
p0
(dp1
S'NumOfRead'
p2
I0
sS'description'
p3
S''
p4
sS'author'
p5
g4
sS'title'
p6
csip
_unpickle_type
p7
(S'PyQt4.QtCore'
p8
S'QString'
p9
(Vww
p10
tp11
tp12
Rp13
sS'requestPoint'
p14
g7
(g8
S'QString'
p15
(V23
p16
tp17
tp18
Rp19
sS'type'
p20
g4
sb.