(lp0
(iBook
Book
p1
(dp2
S'NumOfRead'
p3
I18
sS'comment_type'
p4
(lp5
sS'author'
p6
S'Ralph Henry Barbour'
p7
sS'number_of_complaint'
p8
I0
sS'title'
p9
S'Four in Camp'
p10
sS'last_time_read'
p11
F1450115019.212062
sS'complaint'
p12
(lp13
sS'cover_page'
p14
S'QUINNEYS.jpg'
p15
sS'summary'
p16
S'A STORY OF SUMMER ADVENTURES IN THE NEW HAMPSHIRE WOODS'
p17
sS'book_file'
p18
S'Four in Camp.txt'
p19
sS'rate'
p20
(lp21
sS'requestPoint'
p22
I20
sS'comments'
p23
(lp24
sS'contribute_by'
p25
S'kaiying'
p26
sS'type'
p27
S'Adventures'
p28
sS'superuser_set_point'
p29
I0
sS'complain'
p30
(lp31
sba(iBook
Book
p32
(dp33
g3
I8
sg4
(lp34
sg6
S'Franois Mauriac'
p35
sg8
I0
sg9
S'La chair et le sang'
p36
sg11
F1450115019.212068
sg12
(lp37
sg14
g15
sg16
S'Since the introduction of the tungsten lamp some five years ago, the manufacturers have attempted continually to produce smaller and smaller units in the standard voltages.'
p38
sg18
S'La chair et le sang.txt'
p39
sg20
(lp40
sg22
I5
sg23
(lp41
sg25
g26
sg27
S'Education'
p42
sg29
I0
sg30
(lp43
sba(iBook
Book
p44
(dp45
g3
I22
sg4
(lp46
sg6
S'Clair Elmore Anderson'
p47
sg8
I0
sg9
S'The Fifteen Watt Tungsten Lamp'
p48
sg11
F1450115019.212072
sg12
(lp49
sg14
g15
sg16
g38
sg18
S'The Fifteen Watt Tungsten Lamp.txt'
p50
sg20
(lp51
sg22
I25
sg23
(lp52
sg25
g26
sg27
g42
sg29
I0
sg30
(lp53
sba(iBook
Book
p54
(dp55
g3
I56
sg4
(lp56
S'Doubdtful'
p57
aS'Doubdtful'
p58
aS'Doubdtful'
p59
asg6
S'L. Frank Baum'
p60
sg8
I0
sg9
S'The Wonderful Wizard of Oz'
p61
sg11
F1450115170.366521
sg12
(lp62
sg14
S'The Wonderful Wizard of Oz.jpg'
p63
sg16
S'Folklore, legends, myths and fairy tales have followed childhood through the ages, for every healthy youngster has a wholesome andinstinctive love for stories fantastic, marvelous and manifestly unreal.'
p64
sg18
S'The Wonderful Wizard of Oz.txt'
p65
sg20
(lp66
S'4.5'
p67
aS'5'
p68
aS'4'
p69
asg22
I35
sg23
(lp70
S'wonderful read'
p71
aS'Very good book'
p72
aS'great book'
p73
asg25
S'kaiying'
p74
sg27
S'Adventures'
p75
sg29
I0
sg30
(lp76
sba(iBook
Book
p77
(dp78
g3
I4
sg4
(lp79
S'Doubdtful'
p80
asg6
S'Francis Chevassu'
p81
sg8
I0
sg9
S'Visages'
p82
sg11
F1450115295.213832
sg12
(lp83
sg14
S'QUINNEYS.jpg'
p84
sg16
S'IL est certain que la gloire a un ge. Jean-Jacques nous apparat  quarante ans, Voltaire  soixante, Musset  vingt-cinq, Hugo cinquante,'
p85
sg18
S'Visages.txt'
p86
sg20
(lp87
S'3.5'
p88
asg22
I10
sg23
(lp89
S'I like this book'
p90
asg25
S'kaiying'
p91
sg27
S'Education'
p92
sg29
I0
sg30
(lp93
sba(iBook
Book
p94
(dp95
g3
I55
sg4
(lp96
sg6
S'Horace Annesley Vachell'
p97
sg8
I0
sg9
S'Quinneys'
p98
sg11
F1450115019.212089
sg12
(lp99
sg14
g15
sg16
S"With his back to the man, Quinney smiled.  He could remember the day, not so long ago, when Pinker, the grocer, called him 'My lad.' "
p100
sg18
S'Quinneys.txt'
p101
sg20
(lp102
sg22
I30
sg23
(lp103
sg25
g26
sg27
S'history'
p104
sg29
I0
sg30
(lp105
sba(iBook
Book
p106
(dp107
g3
I0
sg4
(lp108
sg6
S''
p109
sg8
I0
sg9
S'Book1'
p110
sg11
F1450117984.226877
sg12
(lp111
sg14
S'Book1.png'
p112
sg16
S'VOUS _avez, mon cher ami, accueilli ces Essais dans le journal;\nlaissez-moi leur conserver, dans le volume, votre parrainage._'
p113
sg18
S'Book1.txt'
p114
sg20
(lp115
sg22
I100
sg23
(lp116
sg25
S'din'
p117
sg27
S'Maths'
p118
sg29
I90
sba(iBook
Book
p119
(dp120
g3
I0
sg4
(lp121
sg6
g109
sg8
I0
sg9
S'Book2'
p122
sg11
F1450118012.073674
sg12
(lp123
sg14
S'Book2.png'
p124
sg16
S'VOUS _avez, mon cher ami, accueilli ces Essais dans le journal;\nlaissez-moi leur conserver, dans le volume, votre parrainage._'
p125
sg18
S'Book2.txt'
p126
sg20
(lp127
sg22
I100
sg23
(lp128
sg25
S'din'
p129
sg27
S'English'
p130
sg29
I100
sba(iBook
Book
p131
(dp132
g3
I0
sg4
(lp133
sg6
g109
sg8
I0
sg9
S'Book3'
p134
sg11
F1450118040.872651
sg12
(lp135
sg14
S'Book3.png'
p136
sg16
S'VOUS _avez, mon cher ami, accueilli ces Essais dans le journal;\nlaissez-moi leur conserver, dans le volume, votre parrainage._'
p137
sg18
S'Book3.txt'
p138
sg20
(lp139
sg22
I100
sg23
(lp140
sg25
S'din'
p141
sg27
S'Science'
p142
sg29
I100
sba(iBook
Book
p143
(dp144
g3
I0
sg4
(lp145
sg6
g109
sg8
I0
sg9
S'Book4'
p146
sg11
F1450118077.059091
sg12
(lp147
sg14
S'Book4.png'
p148
sg16
S'VOUS _avez, mon cher ami, accueilli ces Essais dans le journal;\nlaissez-moi leur conserver, dans le volume, votre parrainage._'
p149
sg18
S'Book4.txt'
p150
sg20
(lp151
sg22
I100
sg23
(lp152
sg25
S'din'
p153
sg27
S'Csc'
p154
sg29
I100
sba(iBook
Book
p155
(dp156
g3
I0
sg4
(lp157
sg6
g109
sg8
I0
sg9
S'Book5'
p158
sg11
F1450118102.890001
sg12
(lp159
sg14
S'Book5.png'
p160
sg16
S'VOUS _avez, mon cher ami, accueilli ces Essais dans le journal;\nlaissez-moi leur conserver, dans le volume, votre parrainage._'
p161
sg18
S'Book5.txt'
p162
sg20
(lp163
sg22
I100
sg23
(lp164
sg25
S'din'
p165
sg27
S'Math'
p166
sg29
I100
sba(iBook
Book
p167
(dp168
g3
I0
sg4
(lp169
sg6
g109
sg8
I0
sg9
S'Book8'
p170
sg11
F1450118228.902679
sg12
(lp171
sg14
S'Book8.png'
p172
sg16
S'VOUS _avez, mon cher ami, accueilli ces Essais dans le journal;\nlaissez-moi leur conserver, dans le volume, votre parrainage._'
p173
sg18
S'Book8.txt'
p174
sg20
(lp175
sg22
I200
sg23
(lp176
sg25
S'kaiying'
p177
sg27
S'CSC'
p178
sg29
I200
sba(iBook
Book
p179
(dp180
g3
I0
sg4
(lp181
sg6
g109
sg8
I0
sg9
S'Book9'
p182
sg11
F1450118260.137564
sg12
(lp183
sg14
S'Book9.png'
p184
sg16
S'VOUS _avez, mon cher ami, accueilli ces Essais dans le journal;\nlaissez-moi leur conserver, dans le volume, votre parrainage._'
p185
sg18
S'Book9.txt'
p186
sg20
(lp187
sg22
I50
sg23
(lp188
sg25
S'kaiying'
p189
sg27
S'CSC'
p190
sg29
I50
sba(iBook
Book
p191
(dp192
g3
I0
sg4
(lp193
sg6
g109
sg8
I0
sg9
S'Book6'
p194
sg11
F1450118167.511333
sg12
(lp195
sg14
S'Book6.png'
p196
sg16
S'VOUS _avez, mon cher ami, accueilli ces Essais dans le journal;\nlaissez-moi leur conserver, dans le volume, votre parrainage._'
p197
sg18
S'Book6.txt'
p198
sg20
(lp199
sg22
I100
sg23
(lp200
sg25
S'joe'
p201
sg27
S'Maths'
p202
sg29
I100
sba(iBook
Book
p203
(dp204
g3
I0
sg4
(lp205
sg6
g109
sg8
I0
sg9
S'Book7'
p206
sg11
F1450118195.906033
sg12
(lp207
sg14
S'Book7.png'
p208
sg16
S'VOUS _avez, mon cher ami, accueilli ces Essais dans le journal;\nlaissez-moi leur conserver, dans le volume, votre parrainage._'
p209
sg18
S'Book7.txt'
p210
sg20
(lp211
sg22
I150
sg23
(lp212
sg25
S'joe'
p213
sg27
S'Maths'
p214
sg29
I150
sba(iBook
Book
p215
(dp216
g3
I0
sg4
(lp217
sg6
g109
sg8
I0
sg9
S'Book10'
p218
sg11
F1450118289.772069
sg12
(lp219
sg14
S'Book10.png'
p220
sg16
S'VOUS _avez, mon cher ami, accueilli ces Essais dans le journal;\nlaissez-moi leur conserver, dans le volume, votre parrainage._'
p221
sg18
S'Book10.txt'
p222
sg20
(lp223
sg22
I110
sg23
(lp224
sg25
S'joe'
p225
sg27
S'math'
p226
sg29
I110
sba.