ccopy_reg
_reconstructor
p0
(cUser
User
p1
c__builtin__
object
p2
Ntp3
Rp4
(dp5
S'username'
p6
csip
_unpickle_type
p7
(S'PyQt4.QtCore'
p8
S'QString'
p9
(Vjohn
p10
tp11
tp12
Rp13
sS'superUser'
p14
I00
sS'readingHistory'
p15
(lp16
sS'password'
p17
g7
(g8
S'QString'
p18
(V123
p19
tp20
tp21
Rp22
sS'point'
p23
I0
sb.ccopy_reg
_reconstructor
p0
(cUser
User
p1
c__builtin__
object
p2
Ntp3
Rp4
(dp5
S'username'
p6
csip
_unpickle_type
p7
(S'PyQt4.QtCore'
p8
S'QString'
p9
(Vjo
p10
tp11
tp12
Rp13
sS'superUser'
p14
I00
sS'readingHistory'
p15
(lp16
sS'password'
p17
g7
(g8
S'QString'
p18
(V1
p19
tp20
tp21
Rp22
sS'point'
p23
I0
sb.ccopy_reg
_reconstructor
p0
(cUser
User
p1
c__builtin__
object
p2
Ntp3
Rp4
(dp5
S'username'
p6
csip
_unpickle_type
p7
(S'PyQt4.QtCore'
p8
S'QString'
p9
(Vjo
p10
tp11
tp12
Rp13
sS'superUser'
p14
I00
sS'readingHistory'
p15
(lp16
sS'password'
p17
g7
(g8
S'QString'
p18
(V1
p19
tp20
tp21
Rp22
sS'point'
p23
I0
sb.ccopy_reg
_reconstructor
p0
(cUser
User
p1
c__builtin__
object
p2
Ntp3
Rp4
(dp5
S'username'
p6
csip
_unpickle_type
p7
(S'PyQt4.QtCore'
p8
S'QString'
p9
(Vjo
p10
tp11
tp12
Rp13
sS'superUser'
p14
I00
sS'readingHistory'
p15
(lp16
sS'password'
p17
g7
(g8
S'QString'
p18
(V1
p19
tp20
tp21
Rp22
sS'point'
p23
I0
sb.ccopy_reg
_reconstructor
p0
(cUser
User
p1
c__builtin__
object
p2
Ntp3
Rp4
(dp5
S'username'
p6
csip
_unpickle_type
p7
(S'PyQt4.QtCore'
p8
S'QString'
p9
(Vjo
p10
tp11
tp12
Rp13
sS'superUser'
p14
I00
sS'readingHistory'
p15
(lp16
sS'password'
p17
g7
(g8
S'QString'
p18
(V1
p19
tp20
tp21
Rp22
sS'point'
p23
I0
sb.ccopy_reg
_reconstructor
p0
(cUser
User
p1
c__builtin__
object
p2
Ntp3
Rp4
(dp5
S'username'
p6
csip
_unpickle_type
p7
(S'PyQt4.QtCore'
p8
S'QString'
p9
(Vjo
p10
tp11
tp12
Rp13
sS'superUser'
p14
I00
sS'readingHistory'
p15
(lp16
sS'password'
p17
g7
(g8
S'QString'
p18
(V1
p19
tp20
tp21
Rp22
sS'point'
p23
I0
sb.ccopy_reg
_reconstructor
p0
(cUser
User
p1
c__builtin__
object
p2
Ntp3
Rp4
(dp5
S'username'
p6
csip
_unpickle_type
p7
(S'PyQt4.QtCore'
p8
S'QString'
p9
(Vhhh
p10
tp11
tp12
Rp13
sS'superUser'
p14
I00
sS'readingHistory'
p15
(lp16
sS'password'
p17
g7
(g8
S'QString'
p18
(V1
p19
tp20
tp21
Rp22
sS'point'
p23
I0
sb.ccopy_reg
_reconstructor
p0
(cUser
User
p1
c__builtin__
object
p2
Ntp3
Rp4
(dp5
S'username'
p6
csip
_unpickle_type
p7
(S'PyQt4.QtCore'
p8
S'QString'
p9
(Vhhh
p10
tp11
tp12
Rp13
sS'superUser'
p14
I00
sS'readingHistory'
p15
(lp16
sS'password'
p17
I0
sS'point'
p18
I0
sb.ccopy_reg
_reconstructor
p0
(cUser
User
p1
c__builtin__
object
p2
Ntp3
Rp4
(dp5
S'username'
p6
csip
_unpickle_type
p7
(S'PyQt4.QtCore'
p8
S'QString'
p9
(Vwww
p10
tp11
tp12
Rp13
sS'superUser'
p14
I00
sS'readingHistory'
p15
(lp16
sS'password'
p17
g7
(g8
S'QString'
p18
(V999
p19
tp20
tp21
Rp22
sS'point'
p23
I0
sb.ccopy_reg
_reconstructor
p0
(cUser
User
p1
c__builtin__
object
p2
Ntp3
Rp4
(dp5
S'username'
p6
csip
_unpickle_type
p7
(S'PyQt4.QtCore'
p8
S'QString'
p9
(Vwww
p10
tp11
tp12
Rp13
sS'superUser'
p14
I00
sS'readingHistory'
p15
(lp16
sS'password'
p17
I0
sS'point'
p18
I0
sb.