(lp0
(iBook
Book
p1
(dp2
S'NumOfRead'
p3
I0
sS'author'
p4
S''
p5
sS'title'
p6
csip
_unpickle_type
p7
(S'PyQt4.QtCore'
p8
S'QString'
p9
(VJoe
p10
tp11
tp12
Rp13
sS'cover_page'
p14
S'stats.h'
p15
sS'summary'
p16
g7
(g8
S'QString'
p17
(Vjoe
p18
tp19
tp20
Rp21
sS'book_file'
p22
S'stats.h'
p23
sS'requestPoint'
p24
g7
(g8
S'QString'
p25
(V50
p26
tp27
tp28
Rp29
sS'contribute_by'
p30
S'joe'
p31
sS'type'
p32
g5
sS'superuser_set_point'
p33
I0
sS'UploadBookDate'
p34
I0
sba(iBook
Book
p35
(dp36
g3
I0
sg4
g5
sg6
g7
(g8
S'QString'
p37
(Vjo
p38
tp39
tp40
Rp41
sg14
S'stats.h'
p42
sg16
g7
(g8
S'QString'
p43
(Vhh
p44
tp45
tp46
Rp47
sg22
S'stats.h'
p48
sg24
g7
(g8
S'QString'
p49
(V30
p50
tp51
tp52
Rp53
sg30
S'joe'
p54
sg32
g5
sg33
I0
sg34
I0
sba.