(lp0
(iBook
Book
p1
(dp2
S'NumOfRead'
p3
I18
sS'author'
p4
S'Ralph Henry Barbour'
p5
sS'title'
p6
S'Four in Camp'
p7
sS'cover_page'
p8
S'QUINNEYS.jpg'
p9
sS'summary'
p10
S'A STORY OF SUMMER ADVENTURES IN THE NEW HAMPSHIRE WOODS'
p11
sS'book_file'
p12
S'Four in Camp.txt'
p13
sS'requestPoint'
p14
I20
sS'contribute_by'
p15
S'kaiying'
p16
sS'type'
p17
S'Adventures'
p18
sba(iBook
Book
p19
(dp20
g3
I8
sg4
S'Franois Mauriac'
p21
sg6
S'La chair et le sang'
p22
sg8
g9
sg10
S'Since the introduction of the tungsten lamp some five years ago, the manufacturers have attempted continually to produce smaller and smaller units in the standard voltages.'
p23
sg12
S'La chair et le sang.txt'
p24
sg14
I5
sg15
g16
sg17
S'Education'
p25
sba(iBook
Book
p26
(dp27
g3
I22
sg4
S'Clair Elmore Anderson'
p28
sg6
S'The Fifteen Watt Tungsten Lamp'
p29
sg8
g9
sg10
g23
sg12
S'The Fifteen Watt Tungsten Lamp.txt'
p30
sg14
I25
sg15
g16
sg17
g25
sba(iBook
Book
p31
(dp32
g3
I55
sg4
S'L. Frank Baum'
p33
sg6
S'The Wonderful Wizard of Oz'
p34
sg8
S'The Wonderful Wizard of Oz.jpg'
p35
sg10
S'Folklore, legends, myths and fairy tales have followed childhood through the ages, for every healthy youngster has a wholesome andinstinctive love for stories fantastic, marvelous and manifestly unreal.'
p36
sg12
S'The Wonderful Wizard of Oz.txt'
p37
sg14
I35
sg15
g16
sg17
g18
sba(iBook
Book
p38
(dp39
g3
I3
sg4
S'Francis Chevassu'
p40
sg6
S'Visages'
p41
sg8
g9
sg10
S'IL est certain que la gloire a un ge. Jean-Jacques nous apparat  quarante ans, Voltaire  soixante, Musset  vingt-cinq, Hugo cinquante,'
p42
sg12
S'Visages.txt'
p43
sg14
I10
sg15
g16
sg17
g25
sba(iBook
Book
p44
(dp45
g3
I55
sg4
S'Horace Annesley Vachell'
p46
sg6
S'Quinneys'
p47
sg8
g9
sg10
S"With his back to the man, Quinney smiled.  He could remember the day, not so long ago, when Pinker, the grocer, called him 'My lad.' "
p48
sg12
S'Quinneys.txt'
p49
sg14
I30
sg15
g16
sg17
S'history'
p50
sba.