(lp0
(iBook
Book
p1
(dp2
S'NumOfRead'
p3
I18
sS'author'
p4
S'Ralph Henry Barbour'
p5
sS'title'
p6
S'Four in Camp'
p7
sS'last_time_read'
p8
F0.0
sS'cover_page'
p9
S'QUINNEYS.jpg'
p10
sS'summary'
p11
S'A STORY OF SUMMER ADVENTURES IN THE NEW HAMPSHIRE WOODS'
p12
sS'book_file'
p13
S'Four in Camp.txt'
p14
sS'requestPoint'
p15
I20
sS'UploadBookDate'
p16
I0
sS'contribute_by'
p17
S'kaiying'
p18
sS'type'
p19
S'Adventures'
p20
sS'superuser_set_point'
p21
I0
sS'complain'
p22
(lp23
sba(iBook
Book
p24
(dp25
g3
I8
sg4
S'Franois Mauriac'
p26
sg6
S'La chair et le sang'
p27
sg8
F0.0
sg9
g10
sg11
S'Since the introduction of the tungsten lamp some five years ago, the manufacturers have attempted continually to produce smaller and smaller units in the standard voltages.'
p28
sg13
S'La chair et le sang.txt'
p29
sg15
I5
sg16
I0
sg17
g18
sg19
S'Education'
p30
sg21
I0
sg22
(lp31
sba(iBook
Book
p32
(dp33
g3
I22
sg4
S'Clair Elmore Anderson'
p34
sg6
S'The Fifteen Watt Tungsten Lamp'
p35
sg8
F0.0
sg9
g10
sg11
g28
sg13
S'The Fifteen Watt Tungsten Lamp.txt'
p36
sg15
I25
sg16
I0
sg17
g18
sg19
g30
sg21
I0
sg22
(lp37
sba(iBook
Book
p38
(dp39
g3
I55
sg4
S'L. Frank Baum'
p40
sg6
S'The Wonderful Wizard of Oz'
p41
sg8
F0.0
sg9
S'The Wonderful Wizard of Oz.jpg'
p42
sg11
S'Folklore, legends, myths and fairy tales have followed childhood through the ages, for every healthy youngster has a wholesome andinstinctive love for stories fantastic, marvelous and manifestly unreal.'
p43
sg13
S'The Wonderful Wizard of Oz.txt'
p44
sg15
I35
sg16
I0
sg17
g18
sg19
g20
sg21
I0
sg22
(lp45
sba(iBook
Book
p46
(dp47
g3
I3
sg4
S'Francis Chevassu'
p48
sg6
S'Visages'
p49
sg8
F0.0
sg9
g10
sg11
S'IL est certain que la gloire a un ge. Jean-Jacques nous apparat  quarante ans, Voltaire  soixante, Musset  vingt-cinq, Hugo cinquante,'
p50
sg13
S'Visages.txt'
p51
sg15
I10
sg16
I0
sg17
g18
sg19
g30
sg21
I0
sg22
(lp52
sba(iBook
Book
p53
(dp54
g3
I55
sg4
S'Horace Annesley Vachell'
p55
sg6
S'Quinneys'
p56
sg8
F0.0
sg9
g10
sg11
S"With his back to the man, Quinney smiled.  He could remember the day, not so long ago, when Pinker, the grocer, called him 'My lad.' "
p57
sg13
S'Quinneys.txt'
p58
sg15
I30
sg16
I0
sg17
g18
sg19
S'history'
p59
sg21
I0
sg22
(lp60
sba.