(lp0
(iBook
Book
p1
(dp2
S'NumOfRead'
p3
I4
sS'author'
p4
S'Francis Chevassu'
p5
sS'title'
p6
S'Visages'
p7
sS'cover_page'
p8
S'QUINNEYS.jpg'
p9
sS'last_time_read'
p10
F1450045277.596863
sS'comments'
p11
S'ffgood'
p12
sS'summary'
p13
S'IL est certain que la gloire a un ge. Jean-Jacques nous apparat  quarante ans, Voltaire  soixante, Musset  vingt-cinq, Hugo cinquante,'
p14
sS'book_file'
p15
S'Visages.txt'
p16
sS'requestPoint'
p17
I10
sS'contribute_by'
p18
S'kaiying'
p19
sS'type'
p20
S'Education'
p21
sS'superuser_set_point'
p22
I0
sS'complain'
p23
(lp24
sba.