(lp0
ccopy_reg
_reconstructor
p1
(cUser
User
p2
c__builtin__
object
p3
Ntp4
Rp5
(dp6
S'username'
p7
S'kaiying'
p8
sS'superUser'
p9
I01
sS'readingHistory'
p10
ccollections
OrderedDict
p11
((lp12
tp13
Rp14
sS'activate'
p15
I01
sS'point'
p16
I100
sS'own_book'
p17
(lp18
sS'number_of_book_delete'
p19
I0
sS'commentsHistory'
p20
g11
((lp21
tp22
Rp23
sS'inviteDic'
p24
(dp25
sS'password'
p26
S'1'
p27
sS'black_list'
p28
I00
sbag1
(g2
g3
Ntp29
Rp30
(dp31
g7
S'din'
p32
sg9
I00
sg10
g11
((lp33
tp34
Rp35
sg15
I01
sg16
I100
sg17
(lp36
sg19
I0
sg20
g11
((lp37
tp38
Rp39
sg24
(dp40
sg26
g27
sg28
I00
sbag1
(g2
g3
Ntp41
Rp42
(dp43
g7
S'joe'
p44
sg9
I00
sg10
g11
((lp45
(lp46
S'Visages'
p47
aI10
aatp48
Rp49
sg15
I01
sg16
I100
sg17
(lp50
sg19
I0
sg20
g11
((lp51
tp52
Rp53
sg24
(dp54
sg26
g27
sg28
I00
sba.