(lp0
ccopy_reg
_reconstructor
p1
(cUser
User
p2
c__builtin__
object
p3
Ntp4
Rp5
(dp6
S'username'
p7
S'kaiying'
p8
sS'superUser'
p9
I01
sS'readingHistory'
p10
(lp11
sS'point'
p12
I100
sS'own_book'
p13
(lp14
sS'timelist'
p15
(dp16
S'Quinneys'
p17
I10
ssS'password'
p18
S'111111'
p19
sbag1
(g2
g3
Ntp20
Rp21
(dp22
g7
csip
_unpickle_type
p23
(S'PyQt4.QtCore'
p24
S'QString'
p25
(Vwwwwww
p26
tp27
tp28
Rp29
sg9
I00
sg10
(lp30
sg12
I122
sg13
(lp31
(iBook
Book
p32
(dp33
S'NumOfRead'
p34
I0
sS'author'
p35
S''
p36
sS'title'
p37
g36
sS'cover_page'
p38
g36
sS'summary'
p39
g36
sS'book_file'
p40
NsS'requestPoint'
p41
I0
sS'contribute_by'
p42
g21
sS'type'
p43
g36
sS'superuser_set_point'
p44
I0
sbasg15
(dp45
S'Quinneys'
p46
I10
ssg18
g23
(g24
S'QString'
p47
(V111111
p48
tp49
tp50
Rp51
sbag1
(g2
g3
Ntp52
Rp53
(dp54
g7
g23
(g24
S'QString'
p55
(Vdin
p56
tp57
tp58
Rp59
sg9
I00
sg10
(lp60
sg12
I350
sg13
(lp61
(iBook
Book
p62
(dp63
g34
I0
sg35
g36
sg37
g36
sg38
g36
sg39
g36
sg40
Nsg41
I0
sg42
g53
sg43
g36
sg44
I0
sba(iBook
Book
p64
(dp65
g34
I0
sg35
g36
sg37
g36
sg38
g36
sg39
g36
sg40
Nsg41
I0
sg42
g53
sg43
g36
sg44
I0
sbasg15
(dp66
S'Quinneys'
p67
I10
ssg18
g23
(g24
S'QString'
p68
(V1
p69
tp70
tp71
Rp72
sbag1
(g2
g3
Ntp73
Rp74
(dp75
g7
S'kdin'
p76
sg9
I00
sg10
(lp77
sg12
I100
sg13
(lp78
sg15
(dp79
S'Quinneys'
p80
I10
ssS'activity'
p81
I00
sg18
S'1'
p82
sbag1
(g2
g3
Ntp83
Rp84
(dp85
g7
S'kkk'
p86
sg9
I00
sg10
(lp87
sg12
I100
sg13
(lp88
sg15
(dp89
S'Quinneys'
p90
I10
ssg81
I00
sg18
S'1'
p91
sba.