(lp0
ccopy_reg
_reconstructor
p1
(cUser
User
p2
c__builtin__
object
p3
Ntp4
Rp5
(dp6
S'username'
p7
S'kaiying'
p8
sS'superUser'
p9
I01
sS'readingHistory'
p10
ccollections
OrderedDict
p11
((lp12
(lp13
S'Quinneys'
p14
aI2
aatp15
Rp16
sS'activate'
p17
I01
sS'point'
p18
I40
sS'own_book'
p19
(lp20
sS'number_of_book_delete'
p21
I0
sS'bookreadtime'
p22
I0
sS'inviteDic'
p23
(dp24
sS'password'
p25
S'1'
p26
sS'black_list'
p27
I00
sbag1
(g2
g3
Ntp28
Rp29
(dp30
g7
S'john'
p31
sg9
I00
sg10
g11
((lp32
(lp33
S'Quinneys'
p34
aI0
aatp35
Rp36
sg17
I01
sg18
I100
sg19
(lp37
sg21
I0
sg22
I0
sg23
(dp38
S'joe'
p39
(dp40
S'Quinneys'
p41
I01
sssg25
S'1'
p42
sg27
I00
sbag1
(g2
g3
Ntp43
Rp44
(dp45
g7
S'joe'
p46
sg9
I00
sg10
g11
((lp47
(lp48
S'Quinneys'
p49
aI0
aa(lp50
S'Visages'
p51
aI10
aa(lp52
S'La chair et le sang'
p53
aI4
aatp54
Rp55
sg17
I01
sg18
I65
sg19
(lp56
sg21
I0
sg22
I5
sg23
(dp57
S'kaiying'
p58
(dp59
S'Quinneys'
p60
I01
sssg25
S'1'
p61
sg27
I00
sbag1
(g2
g3
Ntp62
Rp63
(dp64
g7
S'mary'
p65
sg9
I00
sg10
g11
((lp66
(lp67
S'Quinneys'
p68
aI10
aatp69
Rp70
sg17
I01
sg18
I150
sg19
(lp71
(iBook
Book
p72
(dp73
S'NumOfRead'
p74
I0
sS'author'
p75
S''
p76
sS'number_of_complaint'
p77
I0
sS'cover_page'
p78
S'stats.h'
p79
sS'last_time_read'
p80
F1450059819.497316
sS'complaint'
p81
(lp82
sS'comments'
p83
(lp84
sS'summary'
p85
S'good one'
p86
sS'book_file'
p87
S'XUE WEI.docx'
p88
sS'rate'
p89
(lp90
sS'requestPoint'
p91
I50
sS'contribute_by'
p92
S'mary'
p93
sS'title'
p94
S'testbook1'
p95
sS'type'
p96
S'entertainment'
p97
sS'superuser_set_point'
p98
I50
sbasg21
I0
sg22
I0
sg23
(dp99
sg25
S'1'
p100
sg27
I00
sba.