(lp0
ccopy_reg
_reconstructor
p1
(cUser
User
p2
c__builtin__
object
p3
Ntp4
Rp5
(dp6
S'username'
p7
S'kaiying'
p8
sS'superUser'
p9
I01
sS'readingHistory'
p10
ccollections
OrderedDict
p11
((lp12
(lp13
S'Four in Camp'
p14
aI6
aa(lp15
S'Quinneys'
p16
aI7
aa(lp17
S'Visages'
p18
aI0
aatp19
Rp20
sS'activate'
p21
I01
sS'point'
p22
I40
sS'own_book'
p23
(lp24
sS'password'
p25
S'111111'
p26
sbag1
(g2
g3
Ntp27
Rp28
(dp29
g7
S'joe'
p30
sg9
I00
sg10
g11
((lp31
tp32
Rp33
sg21
I01
sg22
I100
sg23
(lp34
sg25
S'1'
p35
sba.