(lp0
ccopy_reg
_reconstructor
p1
(cUser
User
p2
c__builtin__
object
p3
Ntp4
Rp5
(dp6
S'username'
p7
S'kaiying'
p8
sS'superUser'
p9
I01
sS'readingHistory'
p10
ccollections
OrderedDict
p11
((lp12
(lp13
S'Quinneys'
p14
aI10
aatp15
Rp16
sS'activate'
p17
I01
sS'point'
p18
I100
sS'own_book'
p19
(lp20
sS'inviteDic'
p21
(dp22
sS'password'
p23
S'1'
p24
sbag1
(g2
g3
Ntp25
Rp26
(dp27
g7
S'john'
p28
sg9
I00
sg10
g11
((lp29
(lp30
S'Quinneys'
p31
aI7
aa(lp32
S'La chair et le sang'
p33
aI6
aatp34
Rp35
sg17
I01
sg18
I95
sg19
(lp36
sg21
(dp37
S'joe'
p38
(dp39
S'La chair et le sang'
p40
I01
sssg23
S'1'
p41
sbag1
(g2
g3
Ntp42
Rp43
(dp44
g7
S'joe'
p45
sg9
I00
sg10
g11
((lp46
(lp47
S'Quinneys'
p48
aI0
aa(lp49
S'Visages'
p50
aI10
aa(lp51
S'La chair et le sang'
p52
aI0
aatp53
Rp54
sg17
I01
sg18
I90
sg19
(lp55
sg21
(dp56
S'john'
p57
(dp58
S'La chair et le sang'
p59
I01
sssg23
S'1'
p60
sba.