(lp0
ccopy_reg
_reconstructor
p1
(cUser
User
p2
c__builtin__
object
p3
Ntp4
Rp5
(dp6
S'username'
p7
S'kaiying'
p8
sS'superUser'
p9
I01
sS'readingHistory'
p10
(lp11
sS'activate'
p12
I01
sS'point'
p13
I100
sS'own_book'
p14
(lp15
sS'timelist'
p16
(dp17
S'Quinneys'
p18
I10
ssS'password'
p19
S'111111'
p20
sbag1
(g2
g3
Ntp21
Rp22
(dp23
g7
S'qqqqqq'
p24
sg9
I00
sg10
(lp25
sg12
I01
sg13
I100
sg14
(lp26
sg16
(dp27
S'Quinneys'
p28
I10
ssg19
S'111111'
p29
sba.