(lp0
ccopy_reg
_reconstructor
p1
(cUser
User
p2
c__builtin__
object
p3
Ntp4
Rp5
(dp6
S'username'
p7
S'kaiying'
p8
sS'superUser'
p9
I01
sS'readingHistory'
p10
ccollections
OrderedDict
p11
((lp12
tp13
Rp14
sS'activate'
p15
I01
sS'point'
p16
I100
sS'own_book'
p17
(lp18
sS'password'
p19
S'111111'
p20
sbag1
(g2
g3
Ntp21
Rp22
(dp23
g7
S'joe'
p24
sg9
I00
sg10
g11
((lp25
tp26
Rp27
sg15
I01
sg16
I100
sg17
(lp28
sg19
S'1'
p29
sba.