(lp0
ccopy_reg
_reconstructor
p1
(cUser
User
p2
c__builtin__
object
p3
Ntp4
Rp5
(dp6
S'username'
p7
S'kaiying'
p8
sS'superUser'
p9
I01
sS'readingHistory'
p10
(lp11
sS'point'
p12
I100
sS'own_book'
p13
(lp14
(iBook
Book
p15
(dp16
S'NumOfRead'
p17
I0
sS'author'
p18
S''
p19
sS'title'
p20
csip
_unpickle_type
p21
(S'PyQt4.QtCore'
p22
S'QString'
p23
(Vcccc
p24
tp25
tp26
Rp27
sS'cover_page'
p28
S'char3.png'
p29
sS'summary'
p30
g21
(g22
S'QString'
p31
(Vfaefaefasf
p32
tp33
tp34
Rp35
sS'book_file'
p36
S'11UpdateSymbol.sql'
p37
sS'requestPoint'
p38
g21
(g22
S'QString'
p39
(V22
p40
tp41
tp42
Rp43
sS'contribute_by'
p44
g5
sS'type'
p45
g19
sbasS'timelist'
p46
(dp47
S'Quinneys'
p48
I10
ssS'password'
p49
S'111111'
p50
sbag1
(g2
g3
Ntp51
Rp52
(dp53
g7
g21
(g22
S'QString'
p54
(Veeeeee
p55
tp56
tp57
Rp58
sg9
I00
sg10
(lp59
sg12
I100
sg13
(lp60
sg46
(dp61
S'Quinneys'
p62
I10
ssg49
g21
(g22
S'QString'
p63
(V111111
p64
tp65
tp66
Rp67
sbag1
(g2
g3
Ntp68
Rp69
(dp70
g7
g21
(g22
S'QString'
p71
(Vwwwwww
p72
tp73
tp74
Rp75
sg9
I00
sg10
(lp76
sg12
I432
sg13
(lp77
(iBook
Book
p78
(dp79
g17
I0
sg18
g19
sg20
g21
(g22
S'QString'
p80
(Vwea
p81
tp82
tp83
Rp84
sg28
S'char4.png'
p85
sg30
g21
(g22
S'QString'
p86
(Vafeasvaef
p87
tp88
tp89
Rp90
sg36
S'index.php'
p91
sg38
g21
(g22
S'QString'
p92
(V33
p93
tp94
tp95
Rp96
sg44
g69
sg45
g19
sS'superuser_set_point'
p97
I0
sba(iBook
Book
p98
(dp99
g17
I0
sg18
g19
sg20
g19
sg28
g19
sg30
g19
sg36
Nsg38
I0
sg44
g69
sg45
g19
sg97
I0
sbag98
ag98
ag98
ag98
ag98
ag98
ag98
ag98
ag98
ag98
ag98
ag98
a(iBook
Book
p100
(dp101
g17
I0
sg18
g19
sg20
g19
sg28
g19
sg30
g19
sg36
Nsg38
I0
sg44
g69
sg45
g19
sg97
I0
sba(iBook
Book
p102
(dp103
g17
I0
sg18
g19
sg20
g19
sg28
g19
sg30
g19
sg36
Nsg38
I0
sg44
g69
sg45
g19
sg97
I0
sba(iBook
Book
p104
(dp105
g17
I0
sg18
g19
sg20
g19
sg28
g19
sg30
g19
sg36
Nsg38
I0
sg44
g69
sg45
g19
sg97
I0
sba(iBook
Book
p106
(dp107
g17
I0
sg18
g19
sg20
g19
sg28
g19
sg30
g19
sg36
Nsg38
I0
sg44
g69
sg45
g19
sg97
I0
sba(iBook
Book
p108
(dp109
g17
I0
sg18
g19
sg20
g19
sg28
g19
sg30
g19
sg36
Nsg38
I0
sg44
g69
sg45
g19
sg97
I0
sbasg46
(dp110
S'Quinneys'
p111
I10
ssg49
g21
(g22
S'QString'
p112
(V111111
p113
tp114
tp115
Rp116
sba.