(lp0
ccopy_reg
_reconstructor
p1
(cUser
User
p2
c__builtin__
object
p3
Ntp4
Rp5
(dp6
S'username'
p7
S'kaiying'
p8
sS'superUser'
p9
I01
sS'readingHistory'
p10
ccollections
OrderedDict
p11
((lp12
(lp13
S'La chair et le sang'
p14
aI8
aatp15
Rp16
sS'activate'
p17
I01
sS'point'
p18
I95
sS'own_book'
p19
(lp20
sS'number_of_book_delete'
p21
I0
sS'commentsHistory'
p22
g11
((lp23
(lp24
g14
aI5
aatp25
Rp26
sS'inviteDic'
p27
(dp28
sS'password'
p29
S'1'
p30
sS'black_list'
p31
I00
sbag1
(g2
g3
Ntp32
Rp33
(dp34
g7
S'din'
p35
sg9
I00
sg10
g11
((lp36
tp37
Rp38
sg17
I01
sg18
I100
sg19
(lp39
sg21
I0
sg22
g11
((lp40
tp41
Rp42
sg27
(dp43
sg29
S'1'
p44
sg31
I00
sbag1
(g2
g3
Ntp45
Rp46
(dp47
g7
S'joe'
p48
sg9
I00
sg10
g11
((lp49
(lp50
S'Visages'
p51
aI10
aatp52
Rp53
sg17
I01
sg18
I100
sg19
(lp54
sg21
I0
sg22
g11
((lp55
tp56
Rp57
sg27
(dp58
sg29
g44
sg31
I00
sba.