(lp0
ccopy_reg
_reconstructor
p1
(cUser
User
p2
c__builtin__
object
p3
Ntp4
Rp5
(dp6
S'username'
p7
S'kaiying'
p8
sS'superUser'
p9
I01
sS'readingHistory'
p10
(dp11
sS'activate'
p12
I01
sS'point'
p13
I-50
sS'own_book'
p14
(lp15
sS'password'
p16
S'111111'
p17
sbag1
(g2
g3
Ntp18
Rp19
(dp20
g7
S'joe'
p21
sg9
I00
sg10
(dp22
sg12
I01
sg13
I100
sg14
(lp23
sg16
S'1'
p24
sba.