(lp0
ccopy_reg
_reconstructor
p1
(cUser
User
p2
c__builtin__
object
p3
Ntp4
Rp5
(dp6
S'username'
p7
S'kaiying'
p8
sS'superUser'
p9
I01
sS'readingHistory'
p10
ccollections
OrderedDict
p11
((lp12
(lp13
S'Quinneys'
p14
aI10
aa(lp15
S'Visages'
p16
aI0
aatp17
Rp18
sS'activate'
p19
I01
sS'point'
p20
I340
sS'own_book'
p21
(lp22
(iBook
Book
p23
(dp24
S'NumOfRead'
p25
I0
sS'comment_type'
p26
(lp27
sS'author'
p28
S''
p29
sS'number_of_complaint'
p30
I0
sS'title'
p31
S'Book8'
p32
sS'last_time_read'
p33
F1450118228.902679
sS'complaint'
p34
(lp35
sS'cover_page'
p36
S'Book8.png'
p37
sS'summary'
p38
S'VOUS _avez, mon cher ami, accueilli ces Essais dans le journal;\nlaissez-moi leur conserver, dans le volume, votre parrainage._'
p39
sS'book_file'
p40
S'Book8.txt'
p41
sS'rate'
p42
(lp43
sS'requestPoint'
p44
I200
sS'comments'
p45
(lp46
sS'contribute_by'
p47
S'kaiying'
p48
sS'type'
p49
S'CSC'
p50
sS'superuser_set_point'
p51
I200
sba(iBook
Book
p52
(dp53
g25
I0
sg26
(lp54
sg28
g29
sg30
I0
sg31
S'Book9'
p55
sg33
F1450118260.137564
sg34
(lp56
sg36
S'Book9.png'
p57
sg38
S'VOUS _avez, mon cher ami, accueilli ces Essais dans le journal;\nlaissez-moi leur conserver, dans le volume, votre parrainage._'
p58
sg40
S'Book9.txt'
p59
sg42
(lp60
sg44
I50
sg45
(lp61
sg47
S'kaiying'
p62
sg49
S'CSC'
p63
sg51
I50
sbasS'number_of_book_delete'
p64
I0
sS'commentsHistory'
p65
g11
((lp66
(lp67
g16
aI5
aatp68
Rp69
sS'inviteDic'
p70
(dp71
sS'password'
p72
S'1'
p73
sS'black_list'
p74
I00
sbag1
(g2
g3
Ntp75
Rp76
(dp77
g7
S'din'
p78
sg9
I00
sg10
g11
((lp79
(lp80
S'Quinneys'
p81
aI10
aatp82
Rp83
sg19
I01
sg20
I590
sg21
(lp84
(iBook
Book
p85
(dp86
g25
I0
sg26
(lp87
sg28
g29
sg30
I0
sg31
S'Book1'
p88
sg33
F1450117984.226877
sg34
(lp89
sg36
S'Book1.png'
p90
sg38
S'VOUS _avez, mon cher ami, accueilli ces Essais dans le journal;\nlaissez-moi leur conserver, dans le volume, votre parrainage._'
p91
sg40
S'Book1.txt'
p92
sg42
(lp93
sg44
I100
sg45
(lp94
sg47
S'din'
p95
sg49
S'Maths'
p96
sg51
I90
sba(iBook
Book
p97
(dp98
g25
I0
sg26
(lp99
sg28
g29
sg30
I0
sg31
S'Book2'
p100
sg33
F1450118012.073674
sg34
(lp101
sg36
S'Book2.png'
p102
sg38
S'VOUS _avez, mon cher ami, accueilli ces Essais dans le journal;\nlaissez-moi leur conserver, dans le volume, votre parrainage._'
p103
sg40
S'Book2.txt'
p104
sg42
(lp105
sg44
I100
sg45
(lp106
sg47
S'din'
p107
sg49
S'English'
p108
sg51
I100
sba(iBook
Book
p109
(dp110
g25
I0
sg26
(lp111
sg28
g29
sg30
I0
sg31
S'Book3'
p112
sg33
F1450118040.872651
sg34
(lp113
sg36
S'Book3.png'
p114
sg38
S'VOUS _avez, mon cher ami, accueilli ces Essais dans le journal;\nlaissez-moi leur conserver, dans le volume, votre parrainage._'
p115
sg40
S'Book3.txt'
p116
sg42
(lp117
sg44
I100
sg45
(lp118
sg47
S'din'
p119
sg49
S'Science'
p120
sg51
I100
sba(iBook
Book
p121
(dp122
g25
I0
sg26
(lp123
sg28
g29
sg30
I0
sg31
S'Book4'
p124
sg33
F1450118077.059091
sg34
(lp125
sg36
S'Book4.png'
p126
sg38
S'VOUS _avez, mon cher ami, accueilli ces Essais dans le journal;\nlaissez-moi leur conserver, dans le volume, votre parrainage._'
p127
sg40
S'Book4.txt'
p128
sg42
(lp129
sg44
I100
sg45
(lp130
sg47
S'din'
p131
sg49
S'Csc'
p132
sg51
I100
sba(iBook
Book
p133
(dp134
g25
I0
sg26
(lp135
sg28
g29
sg30
I0
sg31
S'Book5'
p136
sg33
F1450118102.890001
sg34
(lp137
sg36
S'Book5.png'
p138
sg38
S'VOUS _avez, mon cher ami, accueilli ces Essais dans le journal;\nlaissez-moi leur conserver, dans le volume, votre parrainage._'
p139
sg40
S'Book5.txt'
p140
sg42
(lp141
sg44
I100
sg45
(lp142
sg47
S'din'
p143
sg49
S'Math'
p144
sg51
I100
sbasg64
I0
sg65
g11
((lp145
tp146
Rp147
sg70
(dp148
sg72
S'1'
p149
sg74
I00
sbag1
(g2
g3
Ntp150
Rp151
(dp152
g7
S'joe'
p153
sg9
I00
sg10
g11
((lp154
(lp155
S'Quinneys'
p156
aI10
aa(lp157
S'Visages'
p158
aI10
aa(lp159
S'The Wonderful Wizard of Oz'
p160
aI0
aatp161
Rp162
sg19
I01
sg20
I425
sg21
(lp163
(iBook
Book
p164
(dp165
g25
I0
sg26
(lp166
sg28
g29
sg30
I0
sg31
S'Book6'
p167
sg33
F1450118167.511333
sg34
(lp168
sg36
S'Book6.png'
p169
sg38
S'VOUS _avez, mon cher ami, accueilli ces Essais dans le journal;\nlaissez-moi leur conserver, dans le volume, votre parrainage._'
p170
sg40
S'Book6.txt'
p171
sg42
(lp172
sg44
I100
sg45
(lp173
sg47
S'joe'
p174
sg49
S'Maths'
p175
sg51
I100
sba(iBook
Book
p176
(dp177
g25
I0
sg26
(lp178
sg28
g29
sg30
I0
sg31
S'Book7'
p179
sg33
F1450118195.906033
sg34
(lp180
sg36
S'Book7.png'
p181
sg38
S'VOUS _avez, mon cher ami, accueilli ces Essais dans le journal;\nlaissez-moi leur conserver, dans le volume, votre parrainage._'
p182
sg40
S'Book7.txt'
p183
sg42
(lp184
sg44
I150
sg45
(lp185
sg47
S'joe'
p186
sg49
S'Maths'
p187
sg51
I150
sba(iBook
Book
p188
(dp189
g25
I0
sg26
(lp190
sg28
g29
sg30
I0
sg31
S'Book10'
p191
sg33
F1450118289.772069
sg34
(lp192
sg36
S'Book10.png'
p193
sg38
S'VOUS _avez, mon cher ami, accueilli ces Essais dans le journal;\nlaissez-moi leur conserver, dans le volume, votre parrainage._'
p194
sg40
S'Book10.txt'
p195
sg42
(lp196
sg44
I110
sg45
(lp197
sg47
S'joe'
p198
sg49
S'math'
p199
sg51
I110
sbasg64
I0
sg65
g11
((lp200
(lp201
g160
aI5
aatp202
Rp203
sg70
(dp204
sg72
S'1'
p205
sg74
I00
sbag1
(g2
g3
Ntp206
Rp207
(dp208
g7
S'din1'
p209
sg9
I00
sg10
g11
((lp210
(lp211
S'Quinneys'
p212
aI10
aatp213
Rp214
sg19
I00
sg20
I100
sg21
(lp215
sg64
I0
sg65
g11
((lp216
tp217
Rp218
sg70
(dp219
sg72
S'1'
p220
sg74
I00
sba.