(lp0
ccopy_reg
_reconstructor
p1
(cUser
User
p2
c__builtin__
object
p3
Ntp4
Rp5
(dp6
S'username'
p7
S'kaiying'
p8
sS'superUser'
p9
I01
sS'readingHistory'
p10
(dp11
S'Quinneys'
p12
I10
ssS'activate'
p13
I01
sS'point'
p14
I100
sS'own_book'
p15
(lp16
sS'inviteDic'
p17
(dp18
sS'password'
p19
S'111111'
p20
sbag1
(g2
g3
Ntp21
Rp22
(dp23
g7
S'joe'
p24
sg9
I00
sg10
(dp25
S'Quinneys'
p26
I0
ssg13
I01
sg14
I70
sg15
(lp27
sg17
(dp28
sg19
S'1'
p29
sbag1
(g2
g3
Ntp30
Rp31
(dp32
g7
S'joseph'
p33
sg9
I00
sg10
(dp34
S'Quinneys'
p35
I0
sS'Visages'
p36
I10
ssg13
I01
sg14
I100
sg15
(lp37
sg17
(dp38
S'joe'
p39
(dp40
S'Quinneys'
p41
I01
sssg19
S'1'
p42
sba.