(lp0
ccopy_reg
_reconstructor
p1
(cUser
User
p2
c__builtin__
object
p3
Ntp4
Rp5
(dp6
S'username'
p7
S'kaiying'
p8
sS'superUser'
p9
I01
sS'readingHistory'
p10
(lp11
sS'point'
p12
I100
sS'own_book'
p13
(lp14
sS'timelist'
p15
(dp16
S'Quinneys'
p17
I10
ssS'password'
p18
S'111111'
p19
sbag1
(g2
g3
Ntp20
Rp21
(dp22
g7
csip
_unpickle_type
p23
(S'PyQt4.QtCore'
p24
S'QString'
p25
(Vwwwwww
p26
tp27
tp28
Rp29
sg9
I00
sg10
(lp30
sg12
I122
sg13
(lp31
(iBook
Book
p32
(dp33
S'NumOfRead'
p34
I0
sS'author'
p35
S''
p36
sS'title'
p37
g36
sS'cover_page'
p38
g36
sS'summary'
p39
g36
sS'book_file'
p40
NsS'requestPoint'
p41
I0
sS'contribute_by'
p42
g21
sS'type'
p43
g36
sS'superuser_set_point'
p44
I0
sbasg15
(dp45
S'Quinneys'
p46
I10
ssg18
g23
(g24
S'QString'
p47
(V111111
p48
tp49
tp50
Rp51
sbag1
(g2
g3
Ntp52
Rp53
(dp54
g7
g23
(g24
S'QString'
p55
(Vdin
p56
tp57
tp58
Rp59
sg9
I00
sg10
(lp60
sg12
I750
sg13
(lp61
(iBook
Book
p62
(dp63
g34
I0
sg35
g36
sg37
g36
sg38
g36
sg39
g36
sg40
Nsg41
I0
sg42
g53
sg43
g36
sg44
I0
sba(iBook
Book
p64
(dp65
g34
I0
sg35
g36
sg37
g36
sg38
g36
sg39
g36
sg40
Nsg41
I0
sg42
g53
sg43
g36
sg44
I0
sba(iBook
Book
p66
(dp67
g34
I0
sg35
g36
sg37
g36
sg38
g36
sg39
g36
sg40
Nsg41
I0
sg42
g53
sg43
g36
sg44
I0
sba(iBook
Book
p68
(dp69
g34
I0
sg35
g36
sg37
g36
sg38
g36
sg39
g36
sg40
Nsg41
I0
sg42
g53
sg43
g36
sg44
I0
sba(iBook
Book
p70
(dp71
g34
I0
sg35
g36
sg37
g36
sg38
g36
sg39
g36
sg40
Nsg41
I0
sg42
g53
sg43
g36
sg44
I0
sba(iBook
Book
p72
(dp73
g34
I0
sg35
g36
sg37
g36
sg38
g36
sg39
g36
sg40
Nsg41
I0
sg42
g53
sg43
g36
sg44
I0
sbasg15
(dp74
S'Quinneys'
p75
I10
ssg18
g23
(g24
S'QString'
p76
(V1
p77
tp78
tp79
Rp80
sbag1
(g2
g3
Ntp81
Rp82
(dp83
g7
S'kdin'
p84
sg9
I00
sg10
(lp85
sg12
I100
sg13
(lp86
sg15
(dp87
S'Quinneys'
p88
I10
ssS'activity'
p89
I00
sg18
S'1'
p90
sbag1
(g2
g3
Ntp91
Rp92
(dp93
g7
S'kkk'
p94
sg9
I00
sg10
(lp95
sg12
I100
sg13
(lp96
sg15
(dp97
S'Quinneys'
p98
I10
ssg89
I00
sg18
S'1'
p99
sba.