(lp0
ccopy_reg
_reconstructor
p1
(cUser
User
p2
c__builtin__
object
p3
Ntp4
Rp5
(dp6
S'username'
p7
S'kaiying'
p8
sS'superUser'
p9
I01
sS'readingHistory'
p10
ccollections
OrderedDict
p11
((lp12
(lp13
S'Quinneys'
p14
aI10
aatp15
Rp16
sS'activate'
p17
I01
sS'point'
p18
I100
sS'own_book'
p19
(lp20
sS'number_of_book_delete'
p21
I0
sS'inviteDic'
p22
(dp23
sS'password'
p24
S'1'
p25
sS'black_list'
p26
I00
sbag1
(g2
g3
Ntp27
Rp28
(dp29
g7
S'john'
p30
sg9
I00
sg10
g11
((lp31
(lp32
g14
aI10
aatp33
Rp34
sg17
I01
sg18
I100
sg19
(lp35
sg21
I0
sg22
(dp36
sg24
g25
sg26
I00
sbag1
(g2
g3
Ntp37
Rp38
(dp39
g7
S'joe'
p40
sg9
I00
sg10
g11
((lp41
(lp42
g14
aI10
aa(lp43
S'Visages'
p44
aI10
aatp45
Rp46
sg17
I01
sg18
I100
sg19
(lp47
sg21
I0
sg22
(dp48
sg24
g25
sg26
I00
sba.