(lp0
ccopy_reg
_reconstructor
p1
(cUser
User
p2
c__builtin__
object
p3
Ntp4
Rp5
(dp6
S'username'
p7
S'kaiying'
p8
sS'superUser'
p9
I01
sS'readingHistory'
p10
ccollections
OrderedDict
p11
((lp12
(lp13
S'Quinneys'
p14
aI10
aa(lp15
S'Four in Camp'
p16
aI8
aatp17
Rp18
sS'activate'
p19
I01
sS'point'
p20
I1241
sS'own_book'
p21
(lp22
(iBook
Book
p23
(dp24
S'NumOfRead'
p25
I0
sS'comment_type'
p26
(lp27
sS'author'
p28
S''
p29
sS'number_of_complaint'
p30
I0
sS'title'
p31
S'Book1'
p32
sS'last_time_read'
p33
F1450120248.509869
sS'complaint'
p34
(lp35
sS'cover_page'
p36
S'Book1.png'
p37
sS'summary'
p38
S'VOUS _avez, mon cher ami, accueilli ces Essais dans le journal;\nlaissez-moi leur conserver, dans le volume, votre parrainage._'
p39
sS'book_file'
p40
S'Book1.txt'
p41
sS'rate'
p42
(lp43
sS'requestPoint'
p44
I100
sS'comments'
p45
(lp46
sS'contribute_by'
p47
S'kaiying'
p48
sS'type'
p49
S'csc'
p50
sS'superuser_set_point'
p51
I100
sba(iBook
Book
p52
(dp53
g25
I0
sg26
(lp54
sg28
g29
sg30
I0
sg31
S'Book2'
p55
sg33
F1450120292.518603
sg34
(lp56
sg36
S'Book2.png'
p57
sg38
S'VOUS _avez, mon cher ami, accueilli ces Essais dans le journal;\nlaissez-moi leur conserver, dans le volume, votre parrainage._'
p58
sg40
S'Book2.txt'
p59
sg42
(lp60
sg44
I100
sg45
(lp61
sg47
S'kaiying'
p62
sg49
S'csc'
p63
sg51
I100
sba(iBook
Book
p64
(dp65
g25
I0
sg26
(lp66
sg28
g29
sg30
I0
sg31
S'Book3'
p67
sg33
F1450120378.272005
sg34
(lp68
sg36
S'Book3.png'
p69
sg38
S'VOUS _avez, mon cher ami, accueilli ces Essais dans le journal;\nlaissez-moi leur conserver, dans le volume, votre parrainage._'
p70
sg40
S'Book3.txt'
p71
sg42
(lp72
sg44
I100
sg45
(lp73
sg47
S'kaiying'
p74
sg49
S'csc'
p75
sg51
I100
sba(iBook
Book
p76
(dp77
g25
I0
sg26
(lp78
sg28
g29
sg30
I0
sg31
S'Book4'
p79
sg33
F1450120479.122745
sg34
(lp80
sg36
S'Book4.png'
p81
sg38
S'VOUS _avez, mon cher ami, accueilli ces Essais dans le journal;\nlaissez-moi leur conserver, dans le volume, votre parrainage._'
p82
sg40
S'Book4.txt'
p83
sg42
(lp84
sg44
I100
sg45
(lp85
sg47
S'kaiying'
p86
sg49
S'csc'
p87
sg51
I100
sba(iBook
Book
p88
(dp89
g25
I0
sg26
(lp90
sg28
g29
sg30
I0
sg31
S'Book5'
p91
sg33
F1450120505.843643
sg34
(lp92
sg36
S'Book5.png'
p93
sg38
S'VOUS _avez, mon cher ami, accueilli ces Essais dans le journal;\nlaissez-moi leur conserver, dans le volume, votre parrainage._'
p94
sg40
S'Book5.txt'
p95
sg42
(lp96
sg44
I100
sg45
(lp97
sg47
S'kaiying'
p98
sg49
S'csc'
p99
sg51
I100
sba(iBook
Book
p100
(dp101
g25
I0
sg26
(lp102
sg28
g29
sg30
I0
sg31
S'Book6'
p103
sg33
F1450120539.198149
sg34
(lp104
sg36
S'Book6.png'
p105
sg38
S'VOUS _avez, mon cher ami, accueilli ces Essais dans le journal;\nlaissez-moi leur conserver, dans le volume, votre parrainage._'
p106
sg40
S'Book6.txt'
p107
sg42
(lp108
sg44
I100
sg45
(lp109
sg47
S'kaiying'
p110
sg49
S'csc'
p111
sg51
I100
sba(iBook
Book
p112
(dp113
g25
I0
sg26
(lp114
sg28
g29
sg30
I0
sg31
S'Book7'
p115
sg33
F1450120567.159443
sg34
(lp116
sg36
S'Book7.png'
p117
sg38
S'VOUS _avez, mon cher ami, accueilli ces Essais dans le journal;\nlaissez-moi leur conserver, dans le volume, votre parrainage._'
p118
sg40
S'Book7.txt'
p119
sg42
(lp120
sg44
I100
sg45
(lp121
sg47
S'kaiying'
p122
sg49
S'csc'
p123
sg51
I100
sba(iBook
Book
p124
(dp125
g25
I0
sg26
(lp126
sg28
g29
sg30
I0
sg31
S'Book8'
p127
sg33
F1450120598.217987
sg34
(lp128
sg36
S'Book8.png'
p129
sg38
S'VOUS _avez, mon cher ami, accueilli ces Essais dans le journal;\nlaissez-moi leur conserver, dans le volume, votre parrainage._'
p130
sg40
S'Book8.txt'
p131
sg42
(lp132
sg44
I100
sg45
(lp133
sg47
S'kaiying'
p134
sg49
S'csc'
p135
sg51
I100
sba(iBook
Book
p136
(dp137
g25
I0
sg26
(lp138
sg28
g29
sg30
I0
sg31
S'Book9'
p139
sg33
F1450120628.536972
sg34
(lp140
sg36
S'Book9.png'
p141
sg38
S'VOUS _avez, mon cher ami, accueilli ces Essais dans le journal;\nlaissez-moi leur conserver, dans le volume, votre parrainage._'
p142
sg40
S'Book9.txt'
p143
sg42
(lp144
sg44
I150
sg45
(lp145
sg47
S'kaiying'
p146
sg49
S'math'
p147
sg51
I150
sba(iBook
Book
p148
(dp149
g25
I0
sg26
(lp150
sg28
g29
sg30
I0
sg31
S'Book10'
p151
sg33
F1450120681.018412
sg34
(lp152
sg36
S'Book10.png'
p153
sg38
S'VOUS _avez, mon cher ami, accueilli ces Essais dans le journal;\nlaissez-moi leur conserver, dans le volume, votre parrainage._'
p154
sg40
S'Book10.txt'
p155
sg42
(lp156
sg44
I200
sg45
(lp157
sg47
S'kaiying'
p158
sg49
S'csc'
p159
sg51
I200
sba(iBook
Book
p160
(dp161
g25
I0
sg26
(lp162
sg28
g29
sg30
I0
sg31
S'afa'
p163
sg33
F1450125264.451
sg34
(lp164
sg36
S'char4.png'
p165
sg38
S'afeadf'
p166
sg40
S'Four in Camp.txt'
p167
sg42
(lp168
sg44
I111
sg45
(lp169
sg47
S'kaiying'
p170
sg49
S'book'
p171
sg51
I11
sbasS'number_of_book_delete'
p172
I0
sS'commentsHistory'
p173
g11
((lp174
(lp175
g16
aI5
aatp176
Rp177
sS'inviteDic'
p178
(dp179
sS'password'
p180
S'1'
p181
sS'black_list'
p182
I00
sbag1
(g2
g3
Ntp183
Rp184
(dp185
g7
S'din'
p186
sg9
I00
sg10
g11
((lp187
(lp188
S'Quinneys'
p189
aI10
aatp190
Rp191
sg19
I01
sg20
I100
sg21
(lp192
sg172
I0
sg173
g11
((lp193
tp194
Rp195
sg178
(dp196
sg180
S'1'
p197
sg182
I00
sbag1
(g2
g3
Ntp198
Rp199
(dp200
g7
S'joe'
p201
sg9
I00
sg10
g11
((lp202
(lp203
S'Quinneys'
p204
aI10
aa(lp205
S'Visages'
p206
aI10
aatp207
Rp208
sg19
I01
sg20
I150
sg21
(lp209
(iBook
Book
p210
(dp211
g25
I0
sg26
(lp212
sg28
g29
sg30
I0
sg31
S'af'
p213
sg33
F1450125458.108
sg34
(lp214
sg36
S'char3.png'
p215
sg38
S'aefgaeafa'
p216
sg40
S'Four in Camp.txt'
p217
sg42
(lp218
sg44
I111
sg45
(lp219
sg47
S'joe'
p220
sg49
S'af'
p221
sg51
I50
sbasg172
I0
sg173
g11
((lp222
tp223
Rp224
sg178
(dp225
sg180
S'1'
p226
sg182
I00
sbag1
(g2
g3
Ntp227
Rp228
(dp229
g7
S'kkkkkk'
p230
sg9
I00
sg10
g11
((lp231
(lp232
S'Quinneys'
p233
aI10
aa(lp234
S'Four in Camp'
p235
aI0
aatp236
Rp237
sg19
I01
sg20
I80
sg21
(lp238
sg172
I0
sg173
g11
((lp239
(lp240
g235
aI10
aatp241
Rp242
sg178
(dp243
sg180
S'1'
p244
sg182
I00
sba.