(lp0
ccopy_reg
_reconstructor
p1
(cUser
User
p2
c__builtin__
object
p3
Ntp4
Rp5
(dp6
S'username'
p7
S'kaiying'
p8
sS'superUser'
p9
I01
sS'readingHistory'
p10
(lp11
sS'point'
p12
I100
sS'own_book'
p13
(lp14
(iBook
Book
p15
(dp16
S'NumOfRead'
p17
I0
sS'author'
p18
S''
p19
sS'title'
p20
csip
_unpickle_type
p21
(S'PyQt4.QtCore'
p22
S'QString'
p23
(Vcccc
p24
tp25
tp26
Rp27
sS'cover_page'
p28
S'char3.png'
p29
sS'summary'
p30
g21
(g22
S'QString'
p31
(Vfaefaefasf
p32
tp33
tp34
Rp35
sS'book_file'
p36
S'11UpdateSymbol.sql'
p37
sS'requestPoint'
p38
g21
(g22
S'QString'
p39
(V22
p40
tp41
tp42
Rp43
sS'contribute_by'
p44
g5
sS'type'
p45
g19
sbasS'timelist'
p46
(dp47
S'Quinneys'
p48
I10
ssS'password'
p49
S'111111'
p50
sbag1
(g2
g3
Ntp51
Rp52
(dp53
g7
g21
(g22
S'QString'
p54
(Veeeeee
p55
tp56
tp57
Rp58
sg9
I00
sg10
(lp59
sg12
I100
sg13
(lp60
sg46
(dp61
S'Quinneys'
p62
I10
ssg49
g21
(g22
S'QString'
p63
(V111111
p64
tp65
tp66
Rp67
sbag1
(g2
g3
Ntp68
Rp69
(dp70
g7
g21
(g22
S'QString'
p71
(Vjoe
p72
tp73
tp74
Rp75
sg9
I00
sg10
(lp76
sg12
I100
sg13
(lp77
sg46
(dp78
S'Quinneys'
p79
I10
ssg49
g21
(g22
S'QString'
p80
(V1
p81
tp82
tp83
Rp84
sbag1
(g2
g3
Ntp85
Rp86
(dp87
g7
g21
(g22
S'QString'
p88
(Vdin
p89
tp90
tp91
Rp92
sg9
I00
sg10
(lp93
sg12
I100
sg13
(lp94
sg46
(dp95
S'Quinneys'
p96
I10
ssg49
g21
(g22
S'QString'
p97
(V1
p98
tp99
tp100
Rp101
sbag1
(g2
g3
Ntp102
Rp103
(dp104
g7
g21
(g22
S'QString'
p105
(Vkdin
p106
tp107
tp108
Rp109
sg9
I00
sg10
(lp110
sg12
I100
sg13
(lp111
sg46
(dp112
S'Quinneys'
p113
I10
ssg49
g21
(g22
S'QString'
p114
(V1
p115
tp116
tp117
Rp118
sba.