(lp0
ccopy_reg
_reconstructor
p1
(cUser
User
p2
c__builtin__
object
p3
Ntp4
Rp5
(dp6
S'username'
p7
S'kaiying'
p8
sS'superUser'
p9
I01
sS'readingHistory'
p10
(dp11
S'Quinneys'
p12
I10
sS'af'
p13
I0
ssS'activate'
p14
I01
sS'point'
p15
I95
sS'own_book'
p16
(lp17
(iBook
Book
p18
(dp19
S'NumOfRead'
p20
I0
sS'author'
p21
S''
p22
sS'title'
p23
S'af'
p24
sS'cover_page'
p25
S'char4.png'
p26
sS'last_time_read'
p27
F1449963903.143
sS'summary'
p28
S'efseg'
p29
sS'book_file'
p30
S'connectDatabase.php'
p31
sS'complain'
p32
(lp33
sS'requestPoint'
p34
I44
sS'contribute_by'
p35
S'kaiying'
p36
sS'type'
p37
g22
sS'superuser_set_point'
p38
I44
sS'UploadBookDate'
p39
I0
sbasS'password'
p40
S'111111'
p41
sbag1
(g2
g3
Ntp42
Rp43
(dp44
g7
S'joe'
p45
sg9
I00
sg10
(dp46
S'Quinneys'
p47
I10
ssg14
I01
sg15
I100
sg16
(lp48
sg40
S'1'
p49
sbag1
(g2
g3
Ntp50
Rp51
(dp52
g7
S'awsf'
p53
sg9
I00
sg10
(dp54
S'Quinneys'
p55
I10
ssg14
I01
sg15
I100
sg16
(lp56
sg40
S'111111'
p57
sbag1
(g2
g3
Ntp58
Rp59
(dp60
g7
S'qqqqqq'
p61
sg9
I00
sg10
(dp62
S'Quinneys'
p63
I10
ssg14
I01
sg15
I100
sg16
(lp64
sg40
S'111111'
p65
sbag1
(g2
g3
Ntp66
Rp67
(dp68
g7
S'wwwwww'
p69
sg9
I00
sg10
(dp70
S'Quinneys'
p71
I10
ssg14
I01
sg15
I95
sg16
(lp72
(iBook
Book
p73
(dp74
g20
I0
sg21
g22
sg23
S'aaa'
p75
sg25
S'char3.png'
p76
sg27
F1449963467.157
sg28
S'afaefag'
p77
sg30
S'connectDatabase.php'
p78
sg32
(lp79
sg34
I14
sg35
S'wwwwww'
p80
sg37
g22
sg38
I14
sg39
I0
sbasg40
S'111111'
p81
sba.