(lp0
ccopy_reg
_reconstructor
p1
(cUser
User
p2
c__builtin__
object
p3
Ntp4
Rp5
(dp6
S'username'
p7
S'kaiying'
p8
sS'superUser'
p9
I01
sS'readingHistory'
p10
ccollections
OrderedDict
p11
((lp12
(lp13
S'Quinneys'
p14
aI10
aatp15
Rp16
sS'activate'
p17
I01
sS'point'
p18
I100
sS'own_book'
p19
(lp20
sS'number_of_book_delete'
p21
I0
sS'bookreadtime'
p22
I0
sS'inviteDic'
p23
(dp24
sS'password'
p25
S'1'
p26
sS'black_list'
p27
I00
sbag1
(g2
g3
Ntp28
Rp29
(dp30
g7
S'din'
p31
sg9
I00
sg10
g11
((lp32
(lp33
g14
aI10
aatp34
Rp35
sg17
I01
sg18
I100
sg19
(lp36
sg21
I0
sg22
I0
sg23
(dp37
sg25
g26
sg27
I00
sbag1
(g2
g3
Ntp38
Rp39
(dp40
g7
S'joe'
p41
sg9
I00
sg10
g11
((lp42
(lp43
g14
aI10
aa(lp44
S'Visages'
p45
aI10
aatp46
Rp47
sg17
I01
sg18
I100
sg19
(lp48
sg21
I0
sg22
I0
sg23
(dp49
sg25
g26
sg27
I00
sba.