(lp0
ccopy_reg
_reconstructor
p1
(cUser
User
p2
c__builtin__
object
p3
Ntp4
Rp5
(dp6
S'username'
p7
S'kaiying'
p8
sS'superUser'
p9
I01
sS'readingHistory'
p10
ccollections
OrderedDict
p11
((lp12
(lp13
S'Quinneys'
p14
aI0
aa(lp15
S'Four in Camp'
p16
aI0
aatp17
Rp18
sS'activate'
p19
I01
sS'point'
p20
I210
sS'own_book'
p21
(lp22
sS'number_of_book_delete'
p23
I0
sS'commentsHistory'
p24
g11
((lp25
(lp26
S'Quinneys'
p27
aI15
aa(lp28
g16
aI5
aatp29
Rp30
sS'inviteDic'
p31
(dp32
sS'password'
p33
S'1'
p34
sS'black_list'
p35
I00
sbag1
(g2
g3
Ntp36
Rp37
(dp38
g7
S'din'
p39
sg9
I00
sg10
g11
((lp40
(lp41
S'Quinneys'
p42
aI10
aatp43
Rp44
sg19
I01
sg20
I100
sg21
(lp45
sg23
I0
sg24
g11
((lp46
tp47
Rp48
sg31
(dp49
sg33
S'1'
p50
sg35
I00
sbag1
(g2
g3
Ntp51
Rp52
(dp53
g7
S'joe'
p54
sg9
I00
sg10
g11
((lp55
(lp56
S'Quinneys'
p57
aI0
aa(lp58
S'Visages'
p59
aI10
aa(lp60
S'Four in Camp'
p61
aI0
aatp62
Rp63
sg19
I01
sg20
I50
sg21
(lp64
sg23
I0
sg24
g11
((lp65
(lp66
S'Quinneys'
p67
aI5
aa(lp68
S'Four in Camp'
p69
aI10
aatp70
Rp71
sg31
(dp72
S'kaiying'
p73
(dp74
S'Four in Camp'
p75
I01
sssg33
S'1'
p76
sg35
I00
sba.