(lp0
ccopy_reg
_reconstructor
p1
(cUser
User
p2
c__builtin__
object
p3
Ntp4
Rp5
(dp6
S'username'
p7
S'kaiying'
p8
sS'superUser'
p9
I01
sS'readingHistory'
p10
(dp11
S'Book1'
p12
I8
sS'Quinneys'
p13
I10
ssS'point'
p14
I0
sS'own_book'
p15
(lp16
sS'activity'
p17
I00
sS'password'
p18
S'111111'
p19
sba.