(lp0
ccopy_reg
_reconstructor
p1
(cUser
User
p2
c__builtin__
object
p3
Ntp4
Rp5
(dp6
S'username'
p7
S'kaiying'
p8
sS'superUser'
p9
I01
sS'readingHistory'
p10
ccollections
OrderedDict
p11
((lp12
(lp13
S'Quinneys'
p14
aI10
aatp15
Rp16
sS'activate'
p17
I01
sS'point'
p18
I100
sS'own_book'
p19
(lp20
sS'number_of_book_delete'
p21
I0
sS'commentsHistory'
p22
g11
((lp23
tp24
Rp25
sS'inviteDic'
p26
(dp27
sS'password'
p28
S'1'
p29
sS'black_list'
p30
I00
sbag1
(g2
g3
Ntp31
Rp32
(dp33
g7
S'din'
p34
sg9
I00
sg10
g11
((lp35
(lp36
g14
aI10
aatp37
Rp38
sg17
I01
sg18
I100
sg19
(lp39
sg21
I0
sg22
g11
((lp40
tp41
Rp42
sg26
(dp43
sg28
g29
sg30
I00
sbag1
(g2
g3
Ntp44
Rp45
(dp46
g7
S'joe'
p47
sg9
I00
sg10
g11
((lp48
(lp49
S'Quinneys'
p50
aI10
aa(lp51
S'Visages'
p52
aI10
aa(lp53
S'Four in Camp'
p54
aI8
aatp55
Rp56
sg17
I01
sg18
I80
sg19
(lp57
sg21
I0
sg22
g11
((lp58
(lp59
g54
aI5
aatp60
Rp61
sg26
(dp62
sg28
S'1'
p63
sg30
I00
sbag1
(g2
g3
Ntp64
Rp65
(dp66
g7
S'dinkk'
p67
sg9
I00
sg10
g11
((lp68
(lp69
S'Quinneys'
p70
aI10
aa(lp71
S'The Wonderful Wizard of Oz'
p72
aI8
aatp73
Rp74
sg17
I01
sg18
I65
sg19
(lp75
sg21
I0
sg22
g11
((lp76
(lp77
g72
aI5
aatp78
Rp79
sg26
(dp80
sg28
S'1'
p81
sg30
I00
sbag1
(g2
g3
Ntp82
Rp83
(dp84
g7
S'aa'
p85
sg9
I00
sg10
g11
((lp86
(lp87
S'La chair et le sang'
p88
aI1
aatp89
Rp90
sg17
I01
sg18
I95
sg19
(lp91
sg21
I0
sg22
g11
((lp92
(lp93
g88
aI5
aatp94
Rp95
sg26
(dp96
sg28
S'1'
p97
sg30
I00
sba.