(lp0
ccopy_reg
_reconstructor
p1
(cUser
User
p2
c__builtin__
object
p3
Ntp4
Rp5
(dp6
S'username'
p7
S'kaiying'
p8
sS'superUser'
p9
I01
sS'readingHistory'
p10
ccollections
OrderedDict
p11
((lp12
(lp13
S'Quinneys'
p14
aI10
aa(lp15
S'Visages'
p16
aI0
aatp17
Rp18
sS'activate'
p19
I01
sS'point'
p20
I90
sS'own_book'
p21
(lp22
sS'number_of_book_delete'
p23
I0
sS'commentsHistory'
p24
g11
((lp25
(lp26
g16
aI5
aatp27
Rp28
sS'inviteDic'
p29
(dp30
sS'password'
p31
S'1'
p32
sS'black_list'
p33
I00
sbag1
(g2
g3
Ntp34
Rp35
(dp36
g7
S'din'
p37
sg9
I00
sg10
g11
((lp38
(lp39
S'Quinneys'
p40
aI10
aatp41
Rp42
sg19
I01
sg20
I100
sg21
(lp43
sg23
I0
sg24
g11
((lp44
tp45
Rp46
sg29
(dp47
sg31
S'1'
p48
sg33
I00
sbag1
(g2
g3
Ntp49
Rp50
(dp51
g7
S'joe'
p52
sg9
I00
sg10
g11
((lp53
(lp54
S'Quinneys'
p55
aI10
aa(lp56
S'Visages'
p57
aI10
aa(lp58
S'The Wonderful Wizard of Oz'
p59
aI0
aatp60
Rp61
sg19
I01
sg20
I65
sg21
(lp62
sg23
I0
sg24
g11
((lp63
(lp64
g59
aI5
aatp65
Rp66
sg29
(dp67
sg31
S'1'
p68
sg33
I00
sba.