(lp0
ccopy_reg
_reconstructor
p1
(cUser
User
p2
c__builtin__
object
p3
Ntp4
Rp5
(dp6
S'username'
p7
S'kaiying'
p8
sS'superUser'
p9
I01
sS'readingHistory'
p10
ccollections
OrderedDict
p11
((lp12
(lp13
S'Quinneys'
p14
aI0
aatp15
Rp16
sS'activate'
p17
I01
sS'point'
p18
I140
sS'own_book'
p19
(lp20
sS'number_of_book_delete'
p21
I0
sS'bookreadtime'
p22
I25
sS'inviteDic'
p23
(dp24
sS'password'
p25
S'1'
p26
sS'black_list'
p27
I00
sbag1
(g2
g3
Ntp28
Rp29
(dp30
g7
S'din'
p31
sg9
I00
sg10
g11
((lp32
(lp33
S'Quinneys'
p34
aI10
aatp35
Rp36
sg17
I01
sg18
I100
sg19
(lp37
sg21
I0
sg22
I0
sg23
(dp38
sg25
S'1'
p39
sg27
I00
sbag1
(g2
g3
Ntp40
Rp41
(dp42
g7
S'joe'
p43
sg9
I00
sg10
g11
((lp44
(lp45
S'Quinneys'
p46
aI0
aa(lp47
S'Visages'
p48
aI10
aatp49
Rp50
sg17
I01
sg18
I422
sg19
(lp51
sg21
I0
sg22
I5
sg23
(dp52
S'kaiying'
p53
(dp54
S'Quinneys'
p55
I01
sssg25
S'1'
p56
sg27
I00
sbag1
(g2
g3
Ntp57
Rp58
(dp59
g7
S'qqqqqq'
p60
sg9
I00
sg10
g11
((lp61
(lp62
S'Quinneys'
p63
aI10
aatp64
Rp65
sg17
I01
sg18
I100
sg19
(lp66
sg21
I0
sg22
I0
sg23
(dp67
sg25
S'1'
p68
sg27
I00
sba.