(lp0
ccopy_reg
_reconstructor
p1
(cUser
User
p2
c__builtin__
object
p3
Ntp4
Rp5
(dp6
S'username'
p7
S'kaiying'
p8
sS'superUser'
p9
I01
sS'readingHistory'
p10
ccollections
OrderedDict
p11
((lp12
tp13
Rp14
sS'activate'
p15
I01
sS'point'
p16
I100
sS'own_book'
p17
(lp18
sS'number_of_book_delete'
p19
I0
sS'password'
p20
S'111111'
p21
sS'black_list'
p22
I00
sbag1
(g2
g3
Ntp23
Rp24
(dp25
g7
S'joe'
p26
sg9
I00
sg10
g11
((lp27
tp28
Rp29
sg15
I01
sg16
I100
sg17
(lp30
sg19
I0
sg20
S'1'
p31
sg22
I00
sbag1
(g2
g3
Ntp32
Rp33
(dp34
g7
S'wwwwww'
p35
sg9
I00
sg10
g11
((lp36
(lp37
S'camp'
p38
aI3
aa(lp39
S'ccc'
p40
aI8
aatp41
Rp42
sg15
I01
sg16
I-121
sg17
(lp43
(iBook
Book
p44
(dp45
S'NumOfRead'
p46
I0
sS'author'
p47
S''
p48
sS'number_of_complaint'
p49
I0
sS'cover_page'
p50
S'char3.png'
p51
sS'last_time_read'
p52
F1450049312.112
sS'complaint'
p53
(lp54
sS'summary'
p55
S'afaedfaf'
p56
sS'book_file'
p57
S'Four in Camp.txt'
p58
sS'requestPoint'
p59
I22
sS'contribute_by'
p60
S'wwwwww'
p61
sS'title'
p62
S'camp'
p63
sS'type'
p64
S'education'
p65
sS'superuser_set_point'
p66
I22
sba(iBook
Book
p67
(dp68
g53
(lp69
sg47
g48
sg49
I0
sg50
S'pac.png'
p70
sg52
F1450049588.126
sg46
I0
sg55
S'asfaef'
p71
sg57
S'Four in Camp.txt'
p72
sg59
I33
sg60
S'wwwwww'
p73
sg62
S'ccc'
p74
sg64
S'education'
p75
sg66
I100
sbasg19
I2
sg20
S'111111'
p76
sg22
I01
sbag1
(g2
g3
Ntp77
Rp78
(dp79
g7
S'eeeeee'
p80
sg9
I00
sg10
g11
((lp81
(lp82
S'campp'
p83
aI6
aatp84
Rp85
sg15
I01
sg16
I167
sg17
(lp86
(iBook
Book
p87
(dp88
g46
I0
sg47
g48
sg49
I0
sg50
S'char5.png'
p89
sg52
F1450049998.068
sg53
(lp90
sg55
S'afedf'
p91
sg57
S'Four in Camp.txt'
p92
sg59
I33
sg60
S'eeeeee'
p93
sg62
S'campp'
p94
sg64
S'education'
p95
sg66
I100
sbasg19
I0
sg20
S'111111'
p96
sg22
I01
sba.