(lp0
ccopy_reg
_reconstructor
p1
(cUser
User
p2
c__builtin__
object
p3
Ntp4
Rp5
(dp6
S'username'
p7
S'kaiying'
p8
sS'superUser'
p9
I01
sS'readingHistory'
p10
ccollections
OrderedDict
p11
((lp12
(lp13
S'Quinneys'
p14
aI9
aatp15
Rp16
sS'activate'
p17
I01
sS'point'
p18
I70
sS'own_book'
p19
(lp20
sS'number_of_book_delete'
p21
I0
sS'commentsHistory'
p22
g11
((lp23
(lp24
g14
aI5
aatp25
Rp26
sS'inviteDic'
p27
(dp28
sS'password'
p29
S'1'
p30
sS'black_list'
p31
I00
sbag1
(g2
g3
Ntp32
Rp33
(dp34
g7
S'din'
p35
sg9
I00
sg10
g11
((lp36
(lp37
S'Quinneys'
p38
aI10
aa(lp39
S'Four in Camp'
p40
aI4
aatp41
Rp42
sg17
I01
sg18
I50
sg19
(lp43
sg21
I0
sg22
g11
((lp44
(lp45
g38
aI5
aa(lp46
g40
aI5
aatp47
Rp48
sg27
(dp49
sg29
S'1'
p50
sg31
I00
sbag1
(g2
g3
Ntp51
Rp52
(dp53
g7
S'joe'
p54
sg9
I00
sg10
g11
((lp55
(lp56
S'Visages'
p57
aI10
aatp58
Rp59
sg17
I01
sg18
I100
sg19
(lp60
sg21
I0
sg22
g11
((lp61
tp62
Rp63
sg27
(dp64
sg29
S'1'
p65
sg31
I00
sba.