ccopy_reg
_reconstructor
p0
(cUser
User
p1
c__builtin__
object
p2
Ntp3
Rp4
(dp5
S'username'
p6
csip
_unpickle_type
p7
(S'PyQt4.QtCore'
p8
S'QString'
p9
(Vq
p10
tp11
tp12
Rp13
sS'superUser'
p14
I00
sS'readingHistory'
p15
(lp16
sS'password'
p17
g7
(g8
S'QString'
p18
(V1
p19
tp20
tp21
Rp22
sS'point'
p23
I0
sb.ccopy_reg
_reconstructor
p0
(cUser
User
p1
c__builtin__
object
p2
Ntp3
Rp4
(dp5
S'username'
p6
csip
_unpickle_type
p7
(S'PyQt4.QtCore'
p8
S'QString'
p9
(Vqqqqqq
p10
tp11
tp12
Rp13
sS'superUser'
p14
I00
sS'readingHistory'
p15
(lp16
sS'point'
p17
I100
sS'own_book'
p18
(lp19
sS'password'
p20
g7
(g8
S'QString'
p21
(V111111
p22
tp23
tp24
Rp25
sb.ccopy_reg
_reconstructor
p0
(cUser
User
p1
c__builtin__
object
p2
Ntp3
Rp4
(dp5
S'username'
p6
S'kaiying'
p7
sS'superUser'
p8
I01
sS'readingHistory'
p9
(lp10
sS'point'
p11
I100
sS'own_book'
p12
(lp13
sS'password'
p14
S'111111'
p15
sb.ccopy_reg
_reconstructor
p0
(cUser
User
p1
c__builtin__
object
p2
Ntp3
Rp4
(dp5
S'username'
p6
csip
_unpickle_type
p7
(S'PyQt4.QtCore'
p8
S'QString'
p9
<<<<<<< HEAD
(Vkhadeeja
=======
(VJoe
p10
tp11
tp12
Rp13
sS'superUser'
p14
I00
sS'readingHistory'
p15
(lp16
sS'point'
p17
I100
sS'own_book'
p18
(lp19
sS'password'
p20
g7
(g8
S'QString'
p21
(V1
p22
tp23
tp24
Rp25
sb.ccopy_reg
_reconstructor
p0
(cUser
User
p1
c__builtin__
object
p2
Ntp3
Rp4
(dp5
S'username'
p6
csip
_unpickle_type
p7
(S'PyQt4.QtCore'
p8
S'QString'
p9
(Vjoe
>>>>>>> e9dcb53b01811b1af4c85eb535c40bbb3035640d
p10
tp11
tp12
Rp13
sS'superUser'
p14
I00
sS'readingHistory'
p15
(lp16
sS'point'
p17
I100
sS'own_book'
p18
(lp19
sS'password'
p20
g7
(g8
S'QString'
p21
(V1
p22
tp23
tp24
Rp25
sb.