ccopy_reg
_reconstructor
p0
(cUser
User
p1
c__builtin__
object
p2
Ntp3
Rp4
(dp5
S'username'
p6
S'kaiying'
p7
sS'superUser'
p8
I01
sS'readingHistory'
p9
(lp10
sS'point'
p11
I100
sS'own_book'
p12
(lp13
sS'time'
p14
I20
sS'password'
p15
S'111111'
p16
sb.ccopy_reg
_reconstructor
p0
(cUser
User
p1
c__builtin__
object
p2
Ntp3
Rp4
(dp5
S'username'
p6
csip
_unpickle_type
p7
(S'PyQt4.QtCore'
p8
S'QString'
p9
(VJoseph
p10
tp11
tp12
Rp13
sS'superUser'
p14
I00
sS'readingHistory'
p15
(lp16
sS'point'
p17
I100
sS'own_book'
p18
(lp19
sS'time'
p20
I20
sS'password'
p21
g7
(g8
S'QString'
p22
(V1
p23
tp24
tp25
Rp26
sb.