(lp0
ccopy_reg
_reconstructor
p1
(cUser
User
p2
c__builtin__
object
p3
Ntp4
Rp5
(dp6
S'username'
p7
S'kaiying'
p8
sS'superUser'
p9
I01
sS'readingHistory'
p10
(dp11
S'Quinneys'
p12
I10
ssS'activate'
p13
I01
sS'point'
p14
I225
sS'own_book'
p15
(lp16
(iBook
Book
p17
(dp18
S'NumOfRead'
p19
I18
sS'author'
p20
S'Ralph Henry Barbour'
p21
sS'title'
p22
S'Four in Camp'
p23
sS'cover_page'
p24
S'QUINNEYS.jpg'
p25
sS'comments'
p26
S''
p27
sS'summary'
p28
S'A STORY OF SUMMER ADVENTURES IN THE NEW HAMPSHIRE WOODS'
p29
sS'book_file'
p30
S'Four in Camp.txt'
p31
sS'complain'
p32
(lp33
sS'requestPoint'
p34
I20
sS'contribute_by'
p35
S'kaiying'
p36
sS'type'
p37
S'Adventures'
p38
sS'superuser_set_point'
p39
I20
sS'UploadBookDate'
p40
I0
sba(iBook
Book
p41
(dp42
g19
I8
sg20
S'Franois Mauriac'
p43
sg22
S'La chair et le sang'
p44
sg24
S'QUINNEYS.jpg'
p45
sg26
g27
sg28
S'Since the introduction of the tungsten lamp some five years ago, the manufacturers have attempted continually to produce smaller and smaller units in the standard voltages.'
p46
sg30
S'La chair et le sang.txt'
p47
sg32
(lp48
sg34
I5
sg35
S'kaiying'
p49
sg37
S'Education'
p50
sg39
I5
sg40
I0
sba(iBook
Book
p51
(dp52
g19
I22
sg20
S'Clair Elmore Anderson'
p53
sg22
S'The Fifteen Watt Tungsten Lamp'
p54
sg24
S'QUINNEYS.jpg'
p55
sg26
g27
sg28
S'Since the introduction of the tungsten lamp some five years ago, the manufacturers have attempted continually to produce smaller and smaller units in the standard voltages.'
p56
sg30
S'The Fifteen Watt Tungsten Lamp.txt'
p57
sg34
I25
sg40
I0
sg35
S'kaiying'
p58
sg37
S'Education'
p59
sg39
I25
sg32
(lp60
sba(iBook
Book
p61
(dp62
g19
I55
sg20
S'L. Frank Baum'
p63
sg22
S'The Wonderful Wizard of Oz'
p64
sg24
S'The Wonderful Wizard of Oz.jpg'
p65
sg26
g27
sg28
S'Folklore, legends, myths and fairy tales have followed childhood through the ages, for every healthy youngster has a wholesome andinstinctive love for stories fantastic, marvelous and manifestly unreal.'
p66
sg30
S'The Wonderful Wizard of Oz.txt'
p67
sg34
I35
sg35
S'kaiying'
p68
sg39
I35
sg37
S'Adventures'
p69
sg32
(lp70
sg40
I0
sba(iBook
Book
p71
(dp72
g19
I3
sg20
S'Francis Chevassu'
p73
sg22
S'Visages'
p74
sg24
S'QUINNEYS.jpg'
p75
sg26
g27
sg28
S'IL est certain que la gloire a un ge. Jean-Jacques nous apparat  quarante ans, Voltaire  soixante, Musset  vingt-cinq, Hugo cinquante,'
p76
sg30
S'Visages.txt'
p77
sg34
I10
sg35
S'kaiying'
p78
sg39
I10
sg37
S'Education'
p79
sg32
(lp80
sg40
I0
sba(iBook
Book
p81
(dp82
g19
I55
sg20
S'Horace Annesley Vachell'
p83
sg22
S'Quinneys'
p84
sg24
S'QUINNEYS.jpg'
p85
sg26
g27
sg28
S"With his back to the man, Quinney smiled.  He could remember the day, not so long ago, when Pinker, the grocer, called him 'My lad.' "
p86
sg30
S'Quinneys.txt'
p87
sg34
I30
sg40
I0
sg35
S'kaiying'
p88
sg37
S'history'
p89
sg39
I30
sg32
(lp90
sbasS'password'
p91
S'111111'
p92
sbag1
(g2
g3
Ntp93
Rp94
(dp95
g7
S'joe'
p96
sg9
I00
sg10
(dp97
S'Quinneys'
p98
I10
ssg13
I01
sg14
I100
sg15
(lp99
sg91
S'1'
p100
sba.