(lp0
ccopy_reg
_reconstructor
p1
(cUser
User
p2
c__builtin__
object
p3
Ntp4
Rp5
(dp6
S'username'
p7
S'kaiying'
p8
sS'superUser'
p9
I01
sS'readingHistory'
p10
ccollections
OrderedDict
p11
((lp12
(lp13
S'Quinneys'
p14
aI0
aatp15
Rp16
sS'activate'
p17
I01
sS'point'
p18
I100
sS'own_book'
p19
(lp20
sS'inviteDic'
p21
(dp22
sS'password'
p23
S'1'
p24
sbag1
(g2
g3
Ntp25
Rp26
(dp27
g7
S'john'
p28
sg9
I00
sg10
g11
((lp29
(lp30
S'Quinneys'
p31
aI10
aatp32
Rp33
sg17
I01
sg18
I100
sg19
(lp34
sg21
(dp35
sg23
S'1'
p36
sbag1
(g2
g3
Ntp37
Rp38
(dp39
g7
S'joe'
p40
sg9
I00
sg10
g11
((lp41
(lp42
S'Quinneys'
p43
aI10
aa(lp44
S'Visages'
p45
aI0
aatp46
Rp47
sg17
I01
sg18
I100
sg19
(lp48
sg21
(dp49
sg23
S'1'
p50
sbag1
(g2
g3
Ntp51
Rp52
(dp53
g7
S'din'
p54
sg9
I00
sg10
g11
((lp55
(lp56
S'Quinneys'
p57
aI10
aatp58
Rp59
sg17
I00
sg18
I100
sg19
(lp60
sg21
(dp61
sg23
S'1'
p62
sba.