(lp0
ccopy_reg
_reconstructor
p1
(cUser
User
p2
c__builtin__
object
p3
Ntp4
Rp5
(dp6
S'username'
p7
S'kaiying'
p8
sS'superUser'
p9
I01
sS'readingHistory'
p10
(dp11
S'Quinneys'
p12
I10
ssS'activate'
p13
I01
sS'point'
p14
I100
sS'own_book'
p15
(lp16
sS'password'
p17
S'111111'
p18
sbag1
(g2
g3
Ntp19
Rp20
(dp21
g7
S'joe'
p22
sg9
I00
sg10
(dp23
g12
I10
ssg13
I01
sg14
I100
sg15
(lp24
sg17
S'1'
p25
sbag1
(g2
g3
Ntp26
Rp27
(dp28
g7
S'joseph'
p29
sg9
I00
sg10
(dp30
S'Quinneys'
p31
I10
ssg13
I00
sg14
I100
sg15
(lp32
sg17
S'1'
p33
sba.