(lp0
ccopy_reg
_reconstructor
p1
(cUser
User
p2
c__builtin__
object
p3
Ntp4
Rp5
(dp6
S'username'
p7
S'kaiying'
p8
sS'superUser'
p9
I01
sS'readingHistory'
p10
(lp11
sS'point'
p12
I100
sS'own_book'
p13
(lp14
sS'timelist'
p15
(dp16
S'Quinneys'
p17
I10
ssS'password'
p18
S'111111'
p19
sbag1
(g2
g3
Ntp20
Rp21
(dp22
g7
csip
_unpickle_type
p23
(S'PyQt4.QtCore'
p24
S'QString'
p25
(Vwwwwww
p26
tp27
tp28
Rp29
sg9
I00
sg10
(lp30
sg12
I122
sg13
(lp31
(iBook
Book
p32
(dp33
S'NumOfRead'
p34
I0
sS'author'
p35
S''
p36
sS'title'
p37
g36
sS'cover_page'
p38
g36
sS'summary'
p39
g36
sS'book_file'
p40
NsS'requestPoint'
p41
I0
sS'contribute_by'
p42
g21
sS'type'
p43
g36
sS'superuser_set_point'
p44
I0
sbasg15
(dp45
S'Quinneys'
p46
I10
ssg18
g23
(g24
S'QString'
p47
(V111111
p48
tp49
tp50
Rp51
sba.