(lp0
ccopy_reg
_reconstructor
p1
(cUser
User
p2
c__builtin__
object
p3
Ntp4
Rp5
(dp6
S'username'
p7
S'kaiying'
p8
sS'superUser'
p9
I01
sS'readingHistory'
p10
(dp11
S'aa'
p12
I0
sS'Quinneys'
p13
I10
ssS'activate'
p14
I01
sS'point'
p15
I111
sS'own_book'
p16
(lp17
(iBook
Book
p18
(dp19
S'NumOfRead'
p20
I0
sS'author'
p21
S''
p22
sS'title'
p23
S'afa'
p24
sS'cover_page'
p25
S'char3.png'
p26
sS'summary'
p27
S'afafaf'
p28
sS'book_file'
p29
S'index.php'
p30
sS'requestPoint'
p31
I11
sS'UploadBookDate'
p32
I0
sS'contribute_by'
p33
S'kaiying'
p34
sS'type'
p35
g22
sS'superuser_set_point'
p36
I11
sS'complain'
p37
(lp38
sba(iBook
Book
p39
(dp40
g20
I0
sg21
g22
sg23
S'aa'
p41
sg25
S'char4.png'
p42
sg27
S'afasf'
p43
sg29
S'connectDatabase.php'
p44
sg31
I33
sg32
I0
sg33
S'kaiying'
p45
sg35
g22
sg36
I33
sg37
(lp46
sbasS'password'
p47
S'111111'
p48
sbag1
(g2
g3
Ntp49
Rp50
(dp51
g7
S'joe'
p52
sg9
I00
sg10
(dp53
S'Quinneys'
p54
I10
sS'afa'
p55
I0
ssg14
I01
sg15
I169
sg16
(lp56
(iBook
Book
p57
(dp58
g20
I0
sg21
g22
sg23
csip
_unpickle_type
p59
(S'PyQt4.QtCore'
p60
S'QString'
p61
(VJoe
p62
tp63
tp64
Rp65
sg25
S'stats.h'
p66
sg27
g59
(g60
S'QString'
p67
(Vjoe
p68
tp69
tp70
Rp71
sg29
S'stats.h'
p72
sg31
g59
(g60
S'QString'
p73
(V50
p74
tp75
tp76
Rp77
sg33
S'joe'
p78
sg35
g22
sg36
I50
sg32
I0
sba(iBook
Book
p79
(dp80
g20
I0
sg21
g22
sg23
g59
(g60
S'QString'
p81
(Vjo
p82
tp83
tp84
Rp85
sg25
S'stats.h'
p86
sg27
g59
(g60
S'QString'
p87
(Vhh
p88
tp89
tp90
Rp91
sg29
S'stats.h'
p92
sg31
g59
(g60
S'QString'
p93
(V30
p94
tp95
tp96
Rp97
sg33
S'joe'
p98
sg35
g22
sg36
I30
sg32
I0
sbasg47
S'1'
p99
sba.