(lp0
ccopy_reg
_reconstructor
p1
(cUser
User
p2
c__builtin__
object
p3
Ntp4
Rp5
(dp6
S'username'
p7
S'kaiying'
p8
sS'superUser'
p9
I01
sS'readingHistory'
p10
(dp11
S'cc'
p12
I0
sS'af'
p13
I0
sS'Quinneys'
p14
I10
sS'sfca'
p15
I0
ssS'activate'
p16
I01
sS'point'
p17
I150
sS'own_book'
p18
(lp19
(iBook
Book
p20
(dp21
S'NumOfRead'
p22
I0
sS'author'
p23
S''
p24
sS'title'
p25
S'af'
p26
sS'cover_page'
p27
S'char4.png'
p28
sS'last_time_read'
p29
F1449963903.143
sS'summary'
p30
S'efseg'
p31
sS'book_file'
p32
S'connectDatabase.php'
p33
sS'complain'
p34
(lp35
sS'requestPoint'
p36
I44
sS'contribute_by'
p37
S'kaiying'
p38
sS'type'
p39
g24
sS'superuser_set_point'
p40
I44
sS'UploadBookDate'
p41
I0
sba(iBook
Book
p42
(dp43
g22
I0
sg23
g24
sg25
S'sfca'
p44
sg27
S'char3.png'
p45
sg29
F1449971947.323
sg30
S'adfa'
p46
sg32
S'path.txt'
p47
sg34
(lp48
sg36
I11
sg37
S'kaiying'
p49
sg39
g24
sg40
I11
sg41
I0
sba(iBook
Book
p50
(dp51
g22
I0
sg23
g24
sg25
S'ccc'
p52
sg27
S'char4.png'
p53
sg29
F1449972133.305
sg30
S'afaefaf'
p54
sg32
S'The Wonderful Wizard of Oz.txt'
p55
sg34
(lp56
sg36
I33
sg37
S'kaiying'
p57
sg39
g24
sg40
I33
sg41
I0
sba(iBook
Book
p58
(dp59
g22
I0
sg23
g24
sg25
S'aa'
p60
sg27
S'char1.png'
p61
sg29
F1449973055.978
sg30
S'afafaf'
p62
sg32
S'Four in Camp.txt'
p63
sg34
(lp64
sg36
I11
sg37
S'kaiying'
p65
sg39
S'education'
p66
sg40
I11
sg41
I0
sba(iBook
Book
p67
(dp68
g22
I0
sg23
g24
sg25
S'bb'
p69
sg27
S'char2.png'
p70
sg29
F1449973204.609
sg30
S'afadafv'
p71
sg32
S'La chair et le sang.txt'
p72
sg34
(lp73
sg36
I22
sg37
S'kaiying'
p74
sg39
S'story'
p75
sg40
I22
sg41
I0
sba(iBook
Book
p76
(dp77
g22
I0
sg23
g24
sg25
S'cc'
p78
sg27
S'char3.png'
p79
sg29
F1449973271.813
sg30
S'agajgajdalj'
p80
sg32
S'The Fifteen Watt Tungsten Lamp.txt'
p81
sg34
(lp82
sg36
I33
sg37
S'kaiying'
p83
sg39
S'education'
p84
sg40
I22
sg41
I0
sbasS'password'
p85
S'111111'
p86
sbag1
(g2
g3
Ntp87
Rp88
(dp89
g7
S'joe'
p90
sg9
I00
sg10
(dp91
S'Quinneys'
p92
I10
ssg16
I01
sg17
I100
sg18
(lp93
sg85
S'1'
p94
sbag1
(g2
g3
Ntp95
Rp96
(dp97
g7
S'awsf'
p98
sg9
I00
sg10
(dp99
S'Quinneys'
p100
I10
ssg16
I01
sg17
I100
sg18
(lp101
sg85
S'111111'
p102
sbag1
(g2
g3
Ntp103
Rp104
(dp105
g7
S'qqqqqq'
p106
sg9
I00
sg10
(dp107
S'Quinneys'
p108
I10
ssg16
I01
sg17
I100
sg18
(lp109
sg85
S'111111'
p110
sbag1
(g2
g3
Ntp111
Rp112
(dp113
g7
S'wwwwww'
p114
sg9
I00
sg10
(dp115
S'qq'
p116
I4
sS'Quinneys'
p117
I10
ssg16
I01
sg17
I117
sg18
(lp118
(iBook
Book
p119
(dp120
g22
I0
sg23
g24
sg25
S'aaa'
p121
sg27
S'char3.png'
p122
sg29
F1449963467.157
sg30
S'afaefag'
p123
sg32
S'connectDatabase.php'
p124
sg34
(lp125
sg36
I14
sg37
S'wwwwww'
p126
sg39
g24
sg40
I14
sg41
I0
sba(iBook
Book
p127
(dp128
g22
I0
sg23
g24
sg25
S'qq'
p129
sg27
S'char1.png'
p130
sg29
F1449970238.135
sg30
S'asfadf'
p131
sg32
S'Four in Camp.txt'
p132
sg34
(lp133
sg36
I11
sg37
S'wwwwww'
p134
sg39
g24
sg40
I11
sg41
I0
sba(iBook
Book
p135
(dp136
g22
I0
sg23
g24
sg25
S'aa'
p137
sg27
S'char2.png'
p138
sg29
F1449971900.057
sg30
S'afafa'
p139
sg32
S'Visages.txt'
p140
sg34
(lp141
sg36
I22
sg37
S'wwwwww'
p142
sg39
g24
sg40
I22
sg41
I0
sbasg85
S'111111'
p143
sbag1
(g2
g3
Ntp144
Rp145
(dp146
g7
S'aaaaaa'
p147
sg9
I00
sg10
(dp148
S'Quinneys'
p149
I10
ssg16
I01
sg17
I100
sg18
(lp150
sg85
S'111111'
p151
sbag1
(g2
g3
Ntp152
Rp153
(dp154
g7
S'eeeeee'
p155
sg9
I00
sg10
(dp156
S'Quinneys'
p157
I10
ssg16
I01
sg17
I100
sg18
(lp158
sg85
S'111111'
p159
sba.