(lp0
ccopy_reg
_reconstructor
p1
(cUser
User
p2
c__builtin__
object
p3
Ntp4
Rp5
(dp6
S'username'
p7
S'kaiying'
p8
sS'superUser'
p9
I01
sS'readingHistory'
p10
ccollections
OrderedDict
p11
((lp12
(lp13
S'Quinneys'
p14
aI10
aatp15
Rp16
sS'activate'
p17
I01
sS'point'
p18
I1250
sS'own_book'
p19
(lp20
(iBook
Book
p21
(dp22
S'NumOfRead'
p23
I0
sS'comment_type'
p24
(lp25
sS'author'
p26
S''
p27
sS'number_of_complaint'
p28
I0
sS'title'
p29
S'Book1'
p30
sS'last_time_read'
p31
F1450120248.509869
sS'complaint'
p32
(lp33
sS'cover_page'
p34
S'Book1.png'
p35
sS'summary'
p36
S'VOUS _avez, mon cher ami, accueilli ces Essais dans le journal;\nlaissez-moi leur conserver, dans le volume, votre parrainage._'
p37
sS'book_file'
p38
S'Book1.txt'
p39
sS'rate'
p40
(lp41
sS'requestPoint'
p42
I100
sS'comments'
p43
(lp44
sS'contribute_by'
p45
S'kaiying'
p46
sS'type'
p47
S'csc'
p48
sS'superuser_set_point'
p49
I100
sba(iBook
Book
p50
(dp51
g23
I0
sg24
(lp52
sg26
g27
sg28
I0
sg29
S'Book2'
p53
sg31
F1450120292.518603
sg32
(lp54
sg34
S'Book2.png'
p55
sg36
S'VOUS _avez, mon cher ami, accueilli ces Essais dans le journal;\nlaissez-moi leur conserver, dans le volume, votre parrainage._'
p56
sg38
S'Book2.txt'
p57
sg40
(lp58
sg42
I100
sg43
(lp59
sg45
S'kaiying'
p60
sg47
S'csc'
p61
sg49
I100
sba(iBook
Book
p62
(dp63
g23
I0
sg24
(lp64
sg26
g27
sg28
I0
sg29
S'Book3'
p65
sg31
F1450120378.272005
sg32
(lp66
sg34
S'Book3.png'
p67
sg36
S'VOUS _avez, mon cher ami, accueilli ces Essais dans le journal;\nlaissez-moi leur conserver, dans le volume, votre parrainage._'
p68
sg38
S'Book3.txt'
p69
sg40
(lp70
sg42
I100
sg43
(lp71
sg45
S'kaiying'
p72
sg47
S'csc'
p73
sg49
I100
sba(iBook
Book
p74
(dp75
g23
I0
sg24
(lp76
sg26
g27
sg28
I0
sg29
S'Book4'
p77
sg31
F1450120479.122745
sg32
(lp78
sg34
S'Book4.png'
p79
sg36
S'VOUS _avez, mon cher ami, accueilli ces Essais dans le journal;\nlaissez-moi leur conserver, dans le volume, votre parrainage._'
p80
sg38
S'Book4.txt'
p81
sg40
(lp82
sg42
I100
sg43
(lp83
sg45
S'kaiying'
p84
sg47
S'csc'
p85
sg49
I100
sba(iBook
Book
p86
(dp87
g23
I0
sg24
(lp88
sg26
g27
sg28
I0
sg29
S'Book5'
p89
sg31
F1450120505.843643
sg32
(lp90
sg34
S'Book5.png'
p91
sg36
S'VOUS _avez, mon cher ami, accueilli ces Essais dans le journal;\nlaissez-moi leur conserver, dans le volume, votre parrainage._'
p92
sg38
S'Book5.txt'
p93
sg40
(lp94
sg42
I100
sg43
(lp95
sg45
S'kaiying'
p96
sg47
S'csc'
p97
sg49
I100
sba(iBook
Book
p98
(dp99
g23
I0
sg24
(lp100
sg26
g27
sg28
I0
sg29
S'Book6'
p101
sg31
F1450120539.198149
sg32
(lp102
sg34
S'Book6.png'
p103
sg36
S'VOUS _avez, mon cher ami, accueilli ces Essais dans le journal;\nlaissez-moi leur conserver, dans le volume, votre parrainage._'
p104
sg38
S'Book6.txt'
p105
sg40
(lp106
sg42
I100
sg43
(lp107
sg45
S'kaiying'
p108
sg47
S'csc'
p109
sg49
I100
sba(iBook
Book
p110
(dp111
g23
I0
sg24
(lp112
sg26
g27
sg28
I0
sg29
S'Book7'
p113
sg31
F1450120567.159443
sg32
(lp114
sg34
S'Book7.png'
p115
sg36
S'VOUS _avez, mon cher ami, accueilli ces Essais dans le journal;\nlaissez-moi leur conserver, dans le volume, votre parrainage._'
p116
sg38
S'Book7.txt'
p117
sg40
(lp118
sg42
I100
sg43
(lp119
sg45
S'kaiying'
p120
sg47
S'csc'
p121
sg49
I100
sba(iBook
Book
p122
(dp123
g23
I0
sg24
(lp124
sg26
g27
sg28
I0
sg29
S'Book8'
p125
sg31
F1450120598.217987
sg32
(lp126
sg34
S'Book8.png'
p127
sg36
S'VOUS _avez, mon cher ami, accueilli ces Essais dans le journal;\nlaissez-moi leur conserver, dans le volume, votre parrainage._'
p128
sg38
S'Book8.txt'
p129
sg40
(lp130
sg42
I100
sg43
(lp131
sg45
S'kaiying'
p132
sg47
S'csc'
p133
sg49
I100
sba(iBook
Book
p134
(dp135
g23
I0
sg24
(lp136
sg26
g27
sg28
I0
sg29
S'Book9'
p137
sg31
F1450120628.536972
sg32
(lp138
sg34
S'Book9.png'
p139
sg36
S'VOUS _avez, mon cher ami, accueilli ces Essais dans le journal;\nlaissez-moi leur conserver, dans le volume, votre parrainage._'
p140
sg38
S'Book9.txt'
p141
sg40
(lp142
sg42
I150
sg43
(lp143
sg45
S'kaiying'
p144
sg47
S'math'
p145
sg49
I150
sba(iBook
Book
p146
(dp147
g23
I0
sg24
(lp148
sg26
g27
sg28
I0
sg29
S'Book10'
p149
sg31
F1450120681.018412
sg32
(lp150
sg34
S'Book10.png'
p151
sg36
S'VOUS _avez, mon cher ami, accueilli ces Essais dans le journal;\nlaissez-moi leur conserver, dans le volume, votre parrainage._'
p152
sg38
S'Book10.txt'
p153
sg40
(lp154
sg42
I200
sg43
(lp155
sg45
S'kaiying'
p156
sg47
S'csc'
p157
sg49
I200
sbasS'number_of_book_delete'
p158
I0
sS'commentsHistory'
p159
g11
((lp160
tp161
Rp162
sS'inviteDic'
p163
(dp164
sS'password'
p165
S'1'
p166
sS'black_list'
p167
I00
sbag1
(g2
g3
Ntp168
Rp169
(dp170
g7
S'din'
p171
sg9
I00
sg10
g11
((lp172
(lp173
S'Quinneys'
p174
aI10
aatp175
Rp176
sg17
I01
sg18
I100
sg19
(lp177
sg158
I0
sg159
g11
((lp178
tp179
Rp180
sg163
(dp181
sg165
S'1'
p182
sg167
I00
sbag1
(g2
g3
Ntp183
Rp184
(dp185
g7
S'joe'
p186
sg9
I00
sg10
g11
((lp187
(lp188
g174
aI10
aa(lp189
S'Visages'
p190
aI10
aatp191
Rp192
sg17
I01
sg18
I100
sg19
(lp193
sg158
I0
sg159
g11
((lp194
tp195
Rp196
sg163
(dp197
sg165
g182
sg167
I00
sba.